
rumboot-basis-Production-bootrom-loader:     file format elf32-littlearm


Disassembly of section .ro:

00000000 <rumboot_default_irq_vectors>:
   0:	ea000031 	b	cc <rumboot_entry_point>
   4:	ea000005 	b	20 <undefined_handler>
   8:	ea00000a 	b	38 <swi_handler>
   c:	ea000013 	b	60 <prefetch_handler>
  10:	ea000018 	b	78 <abort_handler>
  14:	e320f000 	nop	{0}
  18:	ea00001c 	b	90 <irq_handler>
  1c:	ea000023 	b	b0 <fiq_handler>

00000020 <undefined_handler>:
  20:	e3a00000 	mov	r0, #0
  24:	e3a01001 	mov	r1, #1
  28:	e3a02002 	mov	r2, #2
  2c:	eb00062e 	bl	18ec <rumboot_irq_core_dispatch>
  30:	e1b0f00e 	movs	pc, lr
  34:	e320f000 	nop	{0}

00000038 <swi_handler>:
  38:	e92d500f 	push	{r0, r1, r2, r3, ip, lr}
  3c:	e25e0004 	subs	r0, lr, #4
  40:	e5902000 	ldr	r2, [r0]
  44:	e20220ff 	and	r2, r2, #255	; 0xff
  48:	e3a00000 	mov	r0, #0
  4c:	e3a01002 	mov	r1, #2
  50:	eb000625 	bl	18ec <rumboot_irq_core_dispatch>
  54:	e8bd500f 	pop	{r0, r1, r2, r3, ip, lr}
  58:	e1b0f00e 	movs	pc, lr
  5c:	e320f000 	nop	{0}

00000060 <prefetch_handler>:
  60:	e3a00000 	mov	r0, #0
  64:	e3a01001 	mov	r1, #1
  68:	e3a02000 	mov	r2, #0
  6c:	eb00061e 	bl	18ec <rumboot_irq_core_dispatch>
  70:	e1b0f00e 	movs	pc, lr
  74:	e320f000 	nop	{0}

00000078 <abort_handler>:
  78:	e3a00000 	mov	r0, #0
  7c:	e3a01001 	mov	r1, #1
  80:	e3a02001 	mov	r2, #1
  84:	eb000618 	bl	18ec <rumboot_irq_core_dispatch>
  88:	e1b0f00e 	movs	pc, lr
  8c:	e320f000 	nop	{0}

00000090 <irq_handler>:
  90:	e92d500f 	push	{r0, r1, r2, r3, ip, lr}
  94:	e3a00000 	mov	r0, #0
  98:	e3a01000 	mov	r1, #0
  9c:	e3a02000 	mov	r2, #0
  a0:	eb000611 	bl	18ec <rumboot_irq_core_dispatch>
  a4:	e8bd500f 	pop	{r0, r1, r2, r3, ip, lr}
  a8:	e25ef004 	subs	pc, lr, #4
  ac:	e320f000 	nop	{0}

000000b0 <fiq_handler>:
  b0:	e3a00000 	mov	r0, #0
  b4:	e3a01000 	mov	r1, #0
  b8:	e3a02001 	mov	r2, #1
  bc:	eb00060a 	bl	18ec <rumboot_irq_core_dispatch>
  c0:	e1b0f00e 	movs	pc, lr
  c4:	e320f000 	nop	{0}

000000c8 <endless_loop>:
  c8:	eafffffe 	b	c8 <endless_loop>

000000cc <rumboot_entry_point>:
  cc:	e3a00000 	mov	r0, #0
  d0:	e3a01000 	mov	r1, #0
  d4:	e3a02000 	mov	r2, #0
  d8:	e3a03000 	mov	r3, #0
  dc:	e3a04000 	mov	r4, #0
  e0:	e3a05000 	mov	r5, #0
  e4:	e3a06000 	mov	r6, #0
  e8:	e3a07000 	mov	r7, #0
  ec:	e3a08000 	mov	r8, #0
  f0:	e3a09000 	mov	r9, #0
  f4:	e3a0a000 	mov	sl, #0
  f8:	e3a0b000 	mov	fp, #0
  fc:	e3a0c000 	mov	ip, #0
 100:	e3a0d000 	mov	sp, #0
 104:	e3a0e000 	mov	lr, #0
 108:	e3a0060f 	mov	r0, #15728640	; 0xf00000
 10c:	ee010f50 	mcr	15, 0, r0, cr1, cr0, {2}
 110:	ee110f50 	mrc	15, 0, r0, cr1, cr0, {2}
 114:	e7e00a50 	ubfx	r0, r0, #20, #1
 118:	e3a00101 	mov	r0, #1073741824	; 0x40000000
 11c:	eee80a10 	vmsr	fpexc, r0
 120:	e3a00000 	mov	r0, #0
 124:	eee10a10 	vmsr	fpscr, r0
 128:	ec900b20 	vldmia	r0, {d0-d15}
 12c:	e321f0d1 	msr	CPSR_c, #209	; 0xd1
 130:	e3a08000 	mov	r8, #0
 134:	e3a09000 	mov	r9, #0
 138:	e3a0a000 	mov	sl, #0
 13c:	e3a0b000 	mov	fp, #0
 140:	e3a0c000 	mov	ip, #0
 144:	e3a0d000 	mov	sp, #0
 148:	e3a0e000 	mov	lr, #0
 14c:	e321f0d2 	msr	CPSR_c, #210	; 0xd2
 150:	e3a0d000 	mov	sp, #0
 154:	e3a0e000 	mov	lr, #0
 158:	e321f0d7 	msr	CPSR_c, #215	; 0xd7
 15c:	e3a0d000 	mov	sp, #0
 160:	e3a0e000 	mov	lr, #0
 164:	e321f0db 	msr	CPSR_c, #219	; 0xdb
 168:	e3a0d000 	mov	sp, #0
 16c:	e3a0e000 	mov	lr, #0
 170:	e321f0df 	msr	CPSR_c, #223	; 0xdf
 174:	e3a0d000 	mov	sp, #0
 178:	e3a0e000 	mov	lr, #0
 17c:	e321f0d6 	msr	CPSR_c, #214	; 0xd6
 180:	e3a0d000 	mov	sp, #0
 184:	e3a0e000 	mov	lr, #0
 188:	e0910002 	adds	r0, r1, r2
 18c:	ee110f10 	mrc	15, 0, r0, cr1, cr0, {0}
 190:	e3800b02 	orr	r0, r0, #2048	; 0x800
 194:	ee010f10 	mcr	15, 0, r0, cr1, cr0, {0}
 198:	ebffffff 	bl	19c <call_1>

0000019c <call_1>:
 19c:	ebffffff 	bl	1a0 <call_2>

000001a0 <call_2>:
 1a0:	ebffffff 	bl	1a4 <call_3>

000001a4 <call_3>:
 1a4:	e3c00b02 	bic	r0, r0, #2048	; 0x800
 1a8:	ee010f10 	mcr	15, 0, r0, cr1, cr0, {0}
 1ac:	e321f0d2 	msr	CPSR_c, #210	; 0xd2
 1b0:	e59fd02c 	ldr	sp, [pc, #44]	; 1e4 <call_3+0x40>
 1b4:	e321f0d7 	msr	CPSR_c, #215	; 0xd7
 1b8:	e59fd028 	ldr	sp, [pc, #40]	; 1e8 <call_3+0x44>
 1bc:	e321f0db 	msr	CPSR_c, #219	; 0xdb
 1c0:	e59fd024 	ldr	sp, [pc, #36]	; 1ec <call_3+0x48>
 1c4:	e321f0d1 	msr	CPSR_c, #209	; 0xd1
 1c8:	e59fd020 	ldr	sp, [pc, #32]	; 1f0 <call_3+0x4c>
 1cc:	e321f0df 	msr	CPSR_c, #223	; 0xdf
 1d0:	e59fd01c 	ldr	sp, [pc, #28]	; 1f4 <call_3+0x50>
 1d4:	e321f0d3 	msr	CPSR_c, #211	; 0xd3
 1d8:	e59fd018 	ldr	sp, [pc, #24]	; 1f8 <call_3+0x54>
 1dc:	eb000d7f 	bl	37e0 <rumboot_main>
 1e0:	eaffffb8 	b	c8 <endless_loop>
 1e4:	00071000 	andeq	r1, r7, r0
 1e8:	0006f800 	andeq	pc, r6, r0, lsl #16
 1ec:	0006fc00 	andeq	pc, r6, r0, lsl #24
 1f0:	0006f400 	andeq	pc, r6, r0, lsl #8
 1f4:	00070000 	andeq	r0, r7, r0
 1f8:	0007f000 	andeq	pc, r7, r0

000001fc <__udivsi3>:
 1fc:	e2512001 	subs	r2, r1, #1
 200:	012fff1e 	bxeq	lr
 204:	3a000023 	bcc	298 <__udivsi3+0x9c>
 208:	e1500001 	cmp	r0, r1
 20c:	9a00001a 	bls	27c <__udivsi3+0x80>
 210:	e1110002 	tst	r1, r2
 214:	0a00001b 	beq	288 <__udivsi3+0x8c>
 218:	e16f3f11 	clz	r3, r1
 21c:	e16f2f10 	clz	r2, r0
 220:	e0432002 	sub	r2, r3, r2
 224:	e3a03001 	mov	r3, #1
 228:	e1a01211 	lsl	r1, r1, r2
 22c:	e1a03213 	lsl	r3, r3, r2
 230:	e3a02000 	mov	r2, #0
 234:	e1500001 	cmp	r0, r1
 238:	20400001 	subcs	r0, r0, r1
 23c:	21822003 	orrcs	r2, r2, r3
 240:	e15000a1 	cmp	r0, r1, lsr #1
 244:	204000a1 	subcs	r0, r0, r1, lsr #1
 248:	218220a3 	orrcs	r2, r2, r3, lsr #1
 24c:	e1500121 	cmp	r0, r1, lsr #2
 250:	20400121 	subcs	r0, r0, r1, lsr #2
 254:	21822123 	orrcs	r2, r2, r3, lsr #2
 258:	e15001a1 	cmp	r0, r1, lsr #3
 25c:	204001a1 	subcs	r0, r0, r1, lsr #3
 260:	218221a3 	orrcs	r2, r2, r3, lsr #3
 264:	e3500000 	cmp	r0, #0
 268:	11b03223 	lsrsne	r3, r3, #4
 26c:	11a01221 	lsrne	r1, r1, #4
 270:	1affffef 	bne	234 <__udivsi3+0x38>
 274:	e1a00002 	mov	r0, r2
 278:	e12fff1e 	bx	lr
 27c:	03a00001 	moveq	r0, #1
 280:	13a00000 	movne	r0, #0
 284:	e12fff1e 	bx	lr
 288:	e16f2f11 	clz	r2, r1
 28c:	e262201f 	rsb	r2, r2, #31
 290:	e1a00230 	lsr	r0, r0, r2
 294:	e12fff1e 	bx	lr
 298:	e3500000 	cmp	r0, #0
 29c:	13e00000 	mvnne	r0, #0
 2a0:	ea000046 	b	3c0 <__aeabi_idiv0>

000002a4 <__aeabi_uidivmod>:
 2a4:	e3510000 	cmp	r1, #0
 2a8:	0afffffa 	beq	298 <__udivsi3+0x9c>
 2ac:	e92d4003 	push	{r0, r1, lr}
 2b0:	ebffffd1 	bl	1fc <__udivsi3>
 2b4:	e8bd4006 	pop	{r1, r2, lr}
 2b8:	e0030092 	mul	r3, r2, r0
 2bc:	e0411003 	sub	r1, r1, r3
 2c0:	e12fff1e 	bx	lr

000002c4 <__divsi3>:
 2c4:	e3510000 	cmp	r1, #0
 2c8:	0a000030 	beq	390 <.divsi3_skip_div0_test+0xc4>

000002cc <.divsi3_skip_div0_test>:
 2cc:	e020c001 	eor	ip, r0, r1
 2d0:	42611000 	rsbmi	r1, r1, #0
 2d4:	e2512001 	subs	r2, r1, #1
 2d8:	0a00001f 	beq	35c <.divsi3_skip_div0_test+0x90>
 2dc:	e1b03000 	movs	r3, r0
 2e0:	42603000 	rsbmi	r3, r0, #0
 2e4:	e1530001 	cmp	r3, r1
 2e8:	9a00001e 	bls	368 <.divsi3_skip_div0_test+0x9c>
 2ec:	e1110002 	tst	r1, r2
 2f0:	0a000020 	beq	378 <.divsi3_skip_div0_test+0xac>
 2f4:	e16f2f11 	clz	r2, r1
 2f8:	e16f0f13 	clz	r0, r3
 2fc:	e0420000 	sub	r0, r2, r0
 300:	e3a02001 	mov	r2, #1
 304:	e1a01011 	lsl	r1, r1, r0
 308:	e1a02012 	lsl	r2, r2, r0
 30c:	e3a00000 	mov	r0, #0
 310:	e1530001 	cmp	r3, r1
 314:	20433001 	subcs	r3, r3, r1
 318:	21800002 	orrcs	r0, r0, r2
 31c:	e15300a1 	cmp	r3, r1, lsr #1
 320:	204330a1 	subcs	r3, r3, r1, lsr #1
 324:	218000a2 	orrcs	r0, r0, r2, lsr #1
 328:	e1530121 	cmp	r3, r1, lsr #2
 32c:	20433121 	subcs	r3, r3, r1, lsr #2
 330:	21800122 	orrcs	r0, r0, r2, lsr #2
 334:	e15301a1 	cmp	r3, r1, lsr #3
 338:	204331a1 	subcs	r3, r3, r1, lsr #3
 33c:	218001a2 	orrcs	r0, r0, r2, lsr #3
 340:	e3530000 	cmp	r3, #0
 344:	11b02222 	lsrsne	r2, r2, #4
 348:	11a01221 	lsrne	r1, r1, #4
 34c:	1affffef 	bne	310 <.divsi3_skip_div0_test+0x44>
 350:	e35c0000 	cmp	ip, #0
 354:	42600000 	rsbmi	r0, r0, #0
 358:	e12fff1e 	bx	lr
 35c:	e13c0000 	teq	ip, r0
 360:	42600000 	rsbmi	r0, r0, #0
 364:	e12fff1e 	bx	lr
 368:	33a00000 	movcc	r0, #0
 36c:	01a00fcc 	asreq	r0, ip, #31
 370:	03800001 	orreq	r0, r0, #1
 374:	e12fff1e 	bx	lr
 378:	e16f2f11 	clz	r2, r1
 37c:	e262201f 	rsb	r2, r2, #31
 380:	e35c0000 	cmp	ip, #0
 384:	e1a00233 	lsr	r0, r3, r2
 388:	42600000 	rsbmi	r0, r0, #0
 38c:	e12fff1e 	bx	lr
 390:	e3500000 	cmp	r0, #0
 394:	c3e00102 	mvngt	r0, #-2147483648	; 0x80000000
 398:	b3a00102 	movlt	r0, #-2147483648	; 0x80000000
 39c:	ea000007 	b	3c0 <__aeabi_idiv0>

000003a0 <__aeabi_idivmod>:
 3a0:	e3510000 	cmp	r1, #0
 3a4:	0afffff9 	beq	390 <.divsi3_skip_div0_test+0xc4>
 3a8:	e92d4003 	push	{r0, r1, lr}
 3ac:	ebffffc6 	bl	2cc <.divsi3_skip_div0_test>
 3b0:	e8bd4006 	pop	{r1, r2, lr}
 3b4:	e0030092 	mul	r3, r2, r0
 3b8:	e0411003 	sub	r1, r1, r3
 3bc:	e12fff1e 	bx	lr

000003c0 <__aeabi_idiv0>:
 3c0:	e12fff1e 	bx	lr

Disassembly of section .text.dump_parameter:

000003c4 <dump_parameter>:
 3c4:	e3510000 	cmp	r1, #0
 3c8:	b12fff1e 	bxlt	lr
 3cc:	159f1004 	ldrne	r1, [pc, #4]	; 3d8 <dump_parameter+0x14>
 3d0:	059f1004 	ldreq	r1, [pc, #4]	; 3dc <dump_parameter+0x18>
 3d4:	ea0004c4 	b	16ec <rumboot_printf>
 3d8:	000039e5 	andeq	r3, r0, r5, ror #19
 3dc:	000039dc 	ldrdeq	r3, [r0], -ip

Disassembly of section .text.hostmode_loop:

000003e0 <hostmode_loop>:
 3e0:	e92d4ff7 	push	{r0, r1, r2, r4, r5, r6, r7, r8, r9, sl, fp, lr}
 3e4:	e1a06000 	mov	r6, r0
 3e8:	e1a0000d 	mov	r0, sp
 3ec:	eb0001fd 	bl	be8 <rumboot_platform_get_spl_area>
 3f0:	e59f11a4 	ldr	r1, [pc, #420]	; 59c <hostmode_loop+0x1bc>
 3f4:	e59f71a4 	ldr	r7, [pc, #420]	; 5a0 <hostmode_loop+0x1c0>
 3f8:	e59f81a4 	ldr	r8, [pc, #420]	; 5a4 <hostmode_loop+0x1c4>
 3fc:	e1a04000 	mov	r4, r0
 400:	e59f01a0 	ldr	r0, [pc, #416]	; 5a8 <hostmode_loop+0x1c8>
 404:	eb0004b8 	bl	16ec <rumboot_printf>
 408:	eb0001ee 	bl	bc8 <rumboot_platform_enter_host_mode>
 40c:	e59f1188 	ldr	r1, [pc, #392]	; 59c <hostmode_loop+0x1bc>
 410:	e59f0194 	ldr	r0, [pc, #404]	; 5ac <hostmode_loop+0x1cc>
 414:	eb0004b4 	bl	16ec <rumboot_printf>
 418:	e59f517c 	ldr	r5, [pc, #380]	; 59c <hostmode_loop+0x1bc>
 41c:	e1a00007 	mov	r0, r7
 420:	eb000cbf 	bl	3724 <rumboot_platform_sv_event>
 424:	e3020710 	movw	r0, #10000	; 0x2710
 428:	eb00020a 	bl	c58 <rumboot_platform_getchar>
 42c:	e3500058 	cmp	r0, #88	; 0x58
 430:	1a000034 	bne	508 <hostmode_loop+0x128>
 434:	e59d1000 	ldr	r1, [sp]
 438:	e1a00004 	mov	r0, r4
 43c:	eb000c36 	bl	351c <xmodem_get>
 440:	e59fa168 	ldr	sl, [pc, #360]	; 5b0 <hostmode_loop+0x1d0>
 444:	e1a09000 	mov	r9, r0
 448:	eb000154 	bl	9a0 <rumboot_platform_get_uptime>
 44c:	e1a0b000 	mov	fp, r0
 450:	eb000152 	bl	9a0 <rumboot_platform_get_uptime>
 454:	e040000b 	sub	r0, r0, fp
 458:	e150000a 	cmp	r0, sl
 45c:	9afffffb 	bls	450 <hostmode_loop+0x70>
 460:	e59f014c 	ldr	r0, [pc, #332]	; 5b4 <hostmode_loop+0x1d4>
 464:	eb0004a0 	bl	16ec <rumboot_printf>
 468:	e3590000 	cmp	r9, #0
 46c:	e1a02009 	mov	r2, r9
 470:	e1a01005 	mov	r1, r5
 474:	da000020 	ble	4fc <hostmode_loop+0x11c>
 478:	e59f0138 	ldr	r0, [pc, #312]	; 5b8 <hostmode_loop+0x1d8>
 47c:	eb00049a 	bl	16ec <rumboot_printf>
 480:	eb000146 	bl	9a0 <rumboot_platform_get_uptime>
 484:	e1a09000 	mov	r9, r0
 488:	eb000144 	bl	9a0 <rumboot_platform_get_uptime>
 48c:	e0400009 	sub	r0, r0, r9
 490:	e1500008 	cmp	r0, r8
 494:	9afffffb 	bls	488 <hostmode_loop+0xa8>
 498:	e594303c 	ldr	r3, [r4, #60]	; 0x3c
 49c:	e28d1004 	add	r1, sp, #4
 4a0:	e3530000 	cmp	r3, #0
 4a4:	13a03000 	movne	r3, #0
 4a8:	e1a00004 	mov	r0, r4
 4ac:	15c4303c 	strbne	r3, [r4, #60]	; 0x3c
 4b0:	15c4303d 	strbne	r3, [r4, #61]	; 0x3d
 4b4:	15c4303e 	strbne	r3, [r4, #62]	; 0x3e
 4b8:	15c4303f 	strbne	r3, [r4, #63]	; 0x3f
 4bc:	eb000a43 	bl	2dd0 <rumboot_bootimage_check_header>
 4c0:	e3700001 	cmn	r0, #1
 4c4:	0affffd4 	beq	41c <hostmode_loop+0x3c>
 4c8:	e3500000 	cmp	r0, #0
 4cc:	aa000015 	bge	528 <hostmode_loop+0x148>
 4d0:	eb000a36 	bl	2db0 <rumboot_strerror>
 4d4:	e59f10c0 	ldr	r1, [pc, #192]	; 59c <hostmode_loop+0x1bc>
 4d8:	e1a02000 	mov	r2, r0
 4dc:	e59f00d8 	ldr	r0, [pc, #216]	; 5bc <hostmode_loop+0x1dc>
 4e0:	eb000481 	bl	16ec <rumboot_printf>
 4e4:	e3a03000 	mov	r3, #0
 4e8:	e5c43000 	strb	r3, [r4]
 4ec:	e5c43001 	strb	r3, [r4, #1]
 4f0:	e5c43002 	strb	r3, [r4, #2]
 4f4:	e5c43003 	strb	r3, [r4, #3]
 4f8:	eaffffc6 	b	418 <hostmode_loop+0x38>
 4fc:	e59f00bc 	ldr	r0, [pc, #188]	; 5c0 <hostmode_loop+0x1e0>
 500:	eb000479 	bl	16ec <rumboot_printf>
 504:	eaffffe3 	b	498 <hostmode_loop+0xb8>
 508:	e3500065 	cmp	r0, #101	; 0x65
 50c:	1affffe1 	bne	498 <hostmode_loop+0xb8>
 510:	e1a01005 	mov	r1, r5
 514:	e59f00a8 	ldr	r0, [pc, #168]	; 5c4 <hostmode_loop+0x1e4>
 518:	eb000473 	bl	16ec <rumboot_printf>
 51c:	e59f00a4 	ldr	r0, [pc, #164]	; 5c8 <hostmode_loop+0x1e8>
 520:	eb000c7f 	bl	3724 <rumboot_platform_sv_event>
 524:	eaffffdb 	b	498 <hostmode_loop+0xb8>
 528:	e59f106c 	ldr	r1, [pc, #108]	; 59c <hostmode_loop+0x1bc>
 52c:	e59f0098 	ldr	r0, [pc, #152]	; 5cc <hostmode_loop+0x1ec>
 530:	eb00046d 	bl	16ec <rumboot_printf>
 534:	e1a00004 	mov	r0, r4
 538:	eb000aa6 	bl	2fd8 <rumboot_bootimage_check_data>
 53c:	e3500000 	cmp	r0, #0
 540:	1a000012 	bne	590 <hostmode_loop+0x1b0>
 544:	e5c40000 	strb	r0, [r4]
 548:	e5c40001 	strb	r0, [r4, #1]
 54c:	e5c40002 	strb	r0, [r4, #2]
 550:	e5c40003 	strb	r0, [r4, #3]
 554:	e1a00004 	mov	r0, r4
 558:	eb0001af 	bl	c1c <rumboot_platform_exec>
 55c:	e59f1038 	ldr	r1, [pc, #56]	; 59c <hostmode_loop+0x1bc>
 560:	e1a05000 	mov	r5, r0
 564:	e1a02000 	mov	r2, r0
 568:	e59f0060 	ldr	r0, [pc, #96]	; 5d0 <hostmode_loop+0x1f0>
 56c:	eb00045e 	bl	16ec <rumboot_printf>
 570:	e3550000 	cmp	r5, #0
 574:	daffffa7 	ble	418 <hostmode_loop+0x38>
 578:	e59d3000 	ldr	r3, [sp]
 57c:	e1a02004 	mov	r2, r4
 580:	e1a01006 	mov	r1, r6
 584:	e2450001 	sub	r0, r5, #1
 588:	eb0009f6 	bl	2d68 <bootsource_try_by_id>
 58c:	eaffffa1 	b	418 <hostmode_loop+0x38>
 590:	e59f003c 	ldr	r0, [pc, #60]	; 5d4 <hostmode_loop+0x1f4>
 594:	eb000454 	bl	16ec <rumboot_printf>
 598:	eaffff9e 	b	418 <hostmode_loop+0x38>
 59c:	000039ed 	andeq	r3, r0, sp, ror #19
 5a0:	00003a3a 	andeq	r3, r0, sl, lsr sl
 5a4:	0001869f 	muleq	r1, pc, r6	; <UNPREDICTABLE>
 5a8:	000039f2 	strdeq	r3, [r0], -r2
 5ac:	00003a15 	andeq	r3, r0, r5, lsl sl
 5b0:	0003d08f 	andeq	sp, r3, pc, lsl #1
 5b4:	00003a3f 	andeq	r3, r0, pc, lsr sl
 5b8:	00003a43 	andeq	r3, r0, r3, asr #20
 5bc:	00003b0d 	andeq	r3, r0, sp, lsl #22
 5c0:	00003a81 	andeq	r3, r0, r1, lsl #21
 5c4:	00003ab2 			; <UNDEFINED> instruction: 0x00003ab2
 5c8:	00003b02 	andeq	r3, r0, r2, lsl #22
 5cc:	00003b2f 	andeq	r3, r0, pc, lsr #22
 5d0:	00003b55 	andeq	r3, r0, r5, asr fp
 5d4:	00003b75 	andeq	r3, r0, r5, ror fp

Disassembly of section .text.rumboot_platform_dump_config:

000005d8 <rumboot_platform_dump_config>:
 5d8:	e92d4070 	push	{r4, r5, r6, lr}
 5dc:	e1a04000 	mov	r4, r0
 5e0:	e59f0054 	ldr	r0, [pc, #84]	; 63c <rumboot_platform_dump_config+0x64>
 5e4:	e1a05001 	mov	r5, r1
 5e8:	eb00043f 	bl	16ec <rumboot_printf>
 5ec:	e5d41000 	ldrb	r1, [r4]
 5f0:	e59f0048 	ldr	r0, [pc, #72]	; 640 <rumboot_platform_dump_config+0x68>
 5f4:	ebffff72 	bl	3c4 <dump_parameter>
 5f8:	e5941004 	ldr	r1, [r4, #4]
 5fc:	e59f0040 	ldr	r0, [pc, #64]	; 644 <rumboot_platform_dump_config+0x6c>
 600:	ebffff6f 	bl	3c4 <dump_parameter>
 604:	e5941008 	ldr	r1, [r4, #8]
 608:	e59f0038 	ldr	r0, [pc, #56]	; 648 <rumboot_platform_dump_config+0x70>
 60c:	ebffff6c 	bl	3c4 <dump_parameter>
 610:	e5941010 	ldr	r1, [r4, #16]
 614:	e59f0030 	ldr	r0, [pc, #48]	; 64c <rumboot_platform_dump_config+0x74>
 618:	eb000433 	bl	16ec <rumboot_printf>
 61c:	e1a01005 	mov	r1, r5
 620:	e59f0028 	ldr	r0, [pc, #40]	; 650 <rumboot_platform_dump_config+0x78>
 624:	eb000430 	bl	16ec <rumboot_printf>
 628:	e1a00004 	mov	r0, r4
 62c:	eb00017c 	bl	c24 <rumboot_platform_print_summary>
 630:	e59f001c 	ldr	r0, [pc, #28]	; 654 <rumboot_platform_dump_config+0x7c>
 634:	e8bd4070 	pop	{r4, r5, r6, lr}
 638:	ea00042b 	b	16ec <rumboot_printf>
 63c:	00003bd9 	ldrdeq	r3, [r0], -r9
 640:	00003bf8 	strdeq	r3, [r0], -r8
 644:	00003c0d 	andeq	r3, r0, sp, lsl #24
 648:	00003c22 	andeq	r3, r0, r2, lsr #24
 64c:	00003c37 	andeq	r3, r0, r7, lsr ip
 650:	00003c50 	andeq	r3, r0, r0, asr ip
 654:	00003c6b 	andeq	r3, r0, fp, ror #24

Disassembly of section .text.startup.main:

00000658 <main>:
 658:	e92d4070 	push	{r4, r5, r6, lr}
 65c:	e24dd098 	sub	sp, sp, #152	; 0x98
 660:	e1a0000d 	mov	r0, sp
 664:	eb00015f 	bl	be8 <rumboot_platform_get_spl_area>
 668:	e3a04000 	mov	r4, #0
 66c:	e59f30ac 	ldr	r3, [pc, #172]	; 720 <main+0xc8>
 670:	e1a05000 	mov	r5, r0
 674:	e59f00a8 	ldr	r0, [pc, #168]	; 724 <main+0xcc>
 678:	e5c34054 	strb	r4, [r3, #84]	; 0x54
 67c:	e5c34055 	strb	r4, [r3, #85]	; 0x55
 680:	e5c34056 	strb	r4, [r3, #86]	; 0x56
 684:	e5c34057 	strb	r4, [r3, #87]	; 0x57
 688:	eb000c1d 	bl	3704 <rumboot_platform_perf>
 68c:	e28d0004 	add	r0, sp, #4
 690:	eb000122 	bl	b20 <rumboot_platform_read_config>
 694:	e28d0004 	add	r0, sp, #4
 698:	eb00012e 	bl	b58 <rumboot_platform_init_loader>
 69c:	eb000214 	bl	ef4 <rumboot_print_logo>
 6a0:	e59d1000 	ldr	r1, [sp]
 6a4:	e28d0004 	add	r0, sp, #4
 6a8:	ebffffca 	bl	5d8 <rumboot_platform_dump_config>
 6ac:	e1a00004 	mov	r0, r4
 6b0:	eb000c13 	bl	3704 <rumboot_platform_perf>
 6b4:	e59d3008 	ldr	r3, [sp, #8]
 6b8:	e1530004 	cmp	r3, r4
 6bc:	da000009 	ble	6e8 <main+0x90>
 6c0:	e59f0060 	ldr	r0, [pc, #96]	; 728 <main+0xd0>
 6c4:	eb000c0e 	bl	3704 <rumboot_platform_perf>
 6c8:	e28d0004 	add	r0, sp, #4
 6cc:	eb0000ae 	bl	98c <rumboot_platform_selftest>
 6d0:	e1a06000 	mov	r6, r0
 6d4:	e1a00004 	mov	r0, r4
 6d8:	eb000c09 	bl	3704 <rumboot_platform_perf>
 6dc:	e1a01006 	mov	r1, r6
 6e0:	e59f0044 	ldr	r0, [pc, #68]	; 72c <main+0xd4>
 6e4:	eb000400 	bl	16ec <rumboot_printf>
 6e8:	e5dd4004 	ldrb	r4, [sp, #4]
 6ec:	e3540000 	cmp	r4, #0
 6f0:	0a000001 	beq	6fc <main+0xa4>
 6f4:	e28d0018 	add	r0, sp, #24
 6f8:	ebffff38 	bl	3e0 <hostmode_loop>
 6fc:	e59f002c 	ldr	r0, [pc, #44]	; 730 <main+0xd8>
 700:	eb000bff 	bl	3704 <rumboot_platform_perf>
 704:	e28d0018 	add	r0, sp, #24
 708:	e59d2000 	ldr	r2, [sp]
 70c:	e1a01005 	mov	r1, r5
 710:	eb000974 	bl	2ce8 <bootsource_try_chain>
 714:	e1a00004 	mov	r0, r4
 718:	eb000bf9 	bl	3704 <rumboot_platform_perf>
 71c:	eafffff4 	b	6f4 <main+0x9c>
 720:	0007f000 	andeq	pc, r7, r0
 724:	00003b90 	muleq	r0, r0, fp
 728:	00003ba0 	andeq	r3, r0, r0, lsr #23
 72c:	00003ba9 	andeq	r3, r0, r9, lsr #23
 730:	00003bce 	andeq	r3, r0, lr, asr #23

Disassembly of section .text.check_gp_started:

00000734 <check_gp_started>:
 734:	e59f1028 	ldr	r1, [pc, #40]	; 764 <check_gp_started+0x30>
 738:	e3a03001 	mov	r3, #1
 73c:	e3a02000 	mov	r2, #0
 740:	e5813020 	str	r3, [r1, #32]
 744:	e591000c 	ldr	r0, [r1, #12]
 748:	e5911008 	ldr	r1, [r1, #8]
 74c:	e1a03000 	mov	r3, r0
 750:	e1822001 	orr	r2, r2, r1
 754:	e1923003 	orrs	r3, r2, r3
 758:	13a00001 	movne	r0, #1
 75c:	03a00000 	moveq	r0, #0
 760:	e12fff1e 	bx	lr
 764:	0108e000 	mrseq	lr, (UNDEF: 8)

Disassembly of section .text.check_pcie_mbist:

00000768 <check_pcie_mbist>:
 768:	e92d4070 	push	{r4, r5, r6, lr}
 76c:	e3a03001 	mov	r3, #1
 770:	e59f40a8 	ldr	r4, [pc, #168]	; 820 <check_pcie_mbist+0xb8>
 774:	e302570f 	movw	r5, #9999	; 0x270f
 778:	e5843400 	str	r3, [r4, #1024]	; 0x400
 77c:	eb000087 	bl	9a0 <rumboot_platform_get_uptime>
 780:	e1a06000 	mov	r6, r0
 784:	eb000085 	bl	9a0 <rumboot_platform_get_uptime>
 788:	e0400006 	sub	r0, r0, r6
 78c:	e1500005 	cmp	r0, r5
 790:	9a000003 	bls	7a4 <check_pcie_mbist+0x3c>
 794:	e59f0088 	ldr	r0, [pc, #136]	; 824 <check_pcie_mbist+0xbc>
 798:	eb0003d3 	bl	16ec <rumboot_printf>
 79c:	e3a00000 	mov	r0, #0
 7a0:	e8bd8070 	pop	{r4, r5, r6, pc}
 7a4:	e5943400 	ldr	r3, [r4, #1024]	; 0x400
 7a8:	e3130001 	tst	r3, #1
 7ac:	0afffff4 	beq	784 <check_pcie_mbist+0x1c>
 7b0:	e59f0070 	ldr	r0, [pc, #112]	; 828 <check_pcie_mbist+0xc0>
 7b4:	eb0003cc 	bl	16ec <rumboot_printf>
 7b8:	e59f306c 	ldr	r3, [pc, #108]	; 82c <check_pcie_mbist+0xc4>
 7bc:	e5843404 	str	r3, [r4, #1028]	; 0x404
 7c0:	e5943404 	ldr	r3, [r4, #1028]	; 0x404
 7c4:	e3130301 	tst	r3, #67108864	; 0x4000000
 7c8:	1a000000 	bne	7d0 <check_pcie_mbist+0x68>
 7cc:	e320f000 	nop	{0}
 7d0:	e59f3058 	ldr	r3, [pc, #88]	; 830 <check_pcie_mbist+0xc8>
 7d4:	e59f4044 	ldr	r4, [pc, #68]	; 820 <check_pcie_mbist+0xb8>
 7d8:	e302570f 	movw	r5, #9999	; 0x270f
 7dc:	e5843404 	str	r3, [r4, #1028]	; 0x404
 7e0:	eb00006e 	bl	9a0 <rumboot_platform_get_uptime>
 7e4:	e1a06000 	mov	r6, r0
 7e8:	eb00006c 	bl	9a0 <rumboot_platform_get_uptime>
 7ec:	e0400006 	sub	r0, r0, r6
 7f0:	e1500005 	cmp	r0, r5
 7f4:	859f0038 	ldrhi	r0, [pc, #56]	; 834 <check_pcie_mbist+0xcc>
 7f8:	8affffe6 	bhi	798 <check_pcie_mbist+0x30>
 7fc:	e5943404 	ldr	r3, [r4, #1028]	; 0x404
 800:	e3130402 	tst	r3, #33554432	; 0x2000000
 804:	0afffff7 	beq	7e8 <check_pcie_mbist+0x80>
 808:	e59f0028 	ldr	r0, [pc, #40]	; 838 <check_pcie_mbist+0xd0>
 80c:	eb0003b6 	bl	16ec <rumboot_printf>
 810:	e5940404 	ldr	r0, [r4, #1028]	; 0x404
 814:	e2200401 	eor	r0, r0, #16777216	; 0x1000000
 818:	e7e00c50 	ubfx	r0, r0, #24, #1
 81c:	e8bd8070 	pop	{r4, r5, r6, pc}
 820:	0108d000 	mrseq	sp, (UNDEF: 8)
 824:	00003d07 	andeq	r3, r0, r7, lsl #26
 828:	00003cf0 	strdeq	r3, [r0], -r0
 82c:	04000039 	streq	r0, [r0], #-57	; 0xffffffc7
 830:	04800039 	streq	r0, [r0], #57	; 0x39
 834:	00003d42 	andeq	r3, r0, r2, asr #26
 838:	00003d30 	andeq	r3, r0, r0, lsr sp

Disassembly of section .text.st_bisr_analyze:

0000083c <st_bisr_analyze>:
 83c:	e5903000 	ldr	r3, [r0]
 840:	e2131010 	ands	r1, r3, #16
 844:	03a02001 	moveq	r2, #1
 848:	13a02000 	movne	r2, #0
 84c:	e2130008 	ands	r0, r3, #8
 850:	13a03000 	movne	r3, #0
 854:	02023001 	andeq	r3, r2, #1
 858:	e3530000 	cmp	r3, #0
 85c:	1a000007 	bne	880 <st_bisr_analyze+0x44>
 860:	e2900000 	adds	r0, r0, #0
 864:	13a00001 	movne	r0, #1
 868:	e1100002 	tst	r0, r2
 86c:	1a000005 	bne	888 <st_bisr_analyze+0x4c>
 870:	e3510000 	cmp	r1, #0
 874:	03a00000 	moveq	r0, #0
 878:	12000001 	andne	r0, r0, #1
 87c:	e12fff1e 	bx	lr
 880:	e3a00003 	mov	r0, #3
 884:	e12fff1e 	bx	lr
 888:	e3a00002 	mov	r0, #2
 88c:	e12fff1e 	bx	lr

Disassembly of section .text.check_bisr:

00000890 <check_bisr>:
 890:	e3a02001 	mov	r2, #1
 894:	e92d4070 	push	{r4, r5, r6, lr}
 898:	e59f30d0 	ldr	r3, [pc, #208]	; 970 <check_bisr+0xe0>
 89c:	e1a04000 	mov	r4, r0
 8a0:	e583203c 	str	r2, [r3, #60]	; 0x3c
 8a4:	e5903000 	ldr	r3, [r0]
 8a8:	e1833002 	orr	r3, r3, r2
 8ac:	e5803000 	str	r3, [r0]
 8b0:	eb00003a 	bl	9a0 <rumboot_platform_get_uptime>
 8b4:	e1a05000 	mov	r5, r0
 8b8:	eb000038 	bl	9a0 <rumboot_platform_get_uptime>
 8bc:	e1550000 	cmp	r5, r0
 8c0:	0afffffc 	beq	8b8 <check_bisr+0x28>
 8c4:	e5943000 	ldr	r3, [r4]
 8c8:	e30c6350 	movw	r6, #50000	; 0xc350
 8cc:	e3c33001 	bic	r3, r3, #1
 8d0:	e5843000 	str	r3, [r4]
 8d4:	eb000031 	bl	9a0 <rumboot_platform_get_uptime>
 8d8:	e1a05000 	mov	r5, r0
 8dc:	e5943000 	ldr	r3, [r4]
 8e0:	e3130004 	tst	r3, #4
 8e4:	1a000005 	bne	900 <check_bisr+0x70>
 8e8:	eb00002c 	bl	9a0 <rumboot_platform_get_uptime>
 8ec:	e0400005 	sub	r0, r0, r5
 8f0:	e1500006 	cmp	r0, r6
 8f4:	9afffff8 	bls	8dc <check_bisr+0x4c>
 8f8:	e59f0074 	ldr	r0, [pc, #116]	; 974 <check_bisr+0xe4>
 8fc:	eb00037a 	bl	16ec <rumboot_printf>
 900:	e1a00004 	mov	r0, r4
 904:	ebffffcc 	bl	83c <st_bisr_analyze>
 908:	e1a04000 	mov	r4, r0
 90c:	e59f0064 	ldr	r0, [pc, #100]	; 978 <check_bisr+0xe8>
 910:	eb000375 	bl	16ec <rumboot_printf>
 914:	e3540003 	cmp	r4, #3
 918:	979ff104 	ldrls	pc, [pc, r4, lsl #2]
 91c:	ea000005 	b	938 <check_bisr+0xa8>
 920:	00000958 	andeq	r0, r0, r8, asr r9
 924:	00000960 	andeq	r0, r0, r0, ror #18
 928:	00000968 	andeq	r0, r0, r8, ror #18
 92c:	00000930 	andeq	r0, r0, r0, lsr r9
 930:	e59f0044 	ldr	r0, [pc, #68]	; 97c <check_bisr+0xec>
 934:	eb00036c 	bl	16ec <rumboot_printf>
 938:	e3a02000 	mov	r2, #0
 93c:	e59f302c 	ldr	r3, [pc, #44]	; 970 <check_bisr+0xe0>
 940:	e3540003 	cmp	r4, #3
 944:	11540002 	cmpne	r4, r2
 948:	e583203c 	str	r2, [r3, #60]	; 0x3c
 94c:	13a00001 	movne	r0, #1
 950:	03a00000 	moveq	r0, #0
 954:	e8bd8070 	pop	{r4, r5, r6, pc}
 958:	e59f0020 	ldr	r0, [pc, #32]	; 980 <check_bisr+0xf0>
 95c:	eafffff4 	b	934 <check_bisr+0xa4>
 960:	e59f001c 	ldr	r0, [pc, #28]	; 984 <check_bisr+0xf4>
 964:	eafffff2 	b	934 <check_bisr+0xa4>
 968:	e59f0018 	ldr	r0, [pc, #24]	; 988 <check_bisr+0xf8>
 96c:	eafffff0 	b	934 <check_bisr+0xa4>
 970:	0108d000 	mrseq	sp, (UNDEF: 8)
 974:	00003c8a 	andeq	r3, r0, sl, lsl #25
 978:	00003cb8 			; <UNDEFINED> instruction: 0x00003cb8
 97c:	00003cd2 	ldrdeq	r3, [r0], -r2
 980:	00003cd8 	ldrdeq	r3, [r0], -r8
 984:	00003ce1 	andeq	r3, r0, r1, ror #25
 988:	00003cea 	andeq	r3, r0, sl, ror #25

Disassembly of section .text.rumboot_platform_selftest:

0000098c <rumboot_platform_selftest>:
 98c:	e59f1004 	ldr	r1, [pc, #4]	; 998 <rumboot_platform_selftest+0xc>
 990:	e3a00000 	mov	r0, #0
 994:	ea000395 	b	17f0 <test_suite_run>
 998:	00003d70 	andeq	r3, r0, r0, ror sp

Disassembly of section .text.rumboot_virt_to_dma:

0000099c <rumboot_virt_to_dma>:
 99c:	e12fff1e 	bx	lr

Disassembly of section .text.rumboot_platform_get_uptime:

000009a0 <rumboot_platform_get_uptime>:
 9a0:	e92d4010 	push	{r4, lr}
 9a4:	e3a01001 	mov	r1, #1
 9a8:	e59f0020 	ldr	r0, [pc, #32]	; 9d0 <rumboot_platform_get_uptime+0x30>
 9ac:	eb000115 	bl	e08 <sp804_get_value>
 9b0:	eeb15b09 	vmov.f64	d5, #25	; 0x40c80000  6.250
 9b4:	e1e00000 	mvn	r0, r0
 9b8:	ee070a90 	vmov	s15, r0
 9bc:	eeb87b67 	vcvt.f64.u32	d7, s15
 9c0:	ee876b05 	vdiv.f64	d6, d7, d5
 9c4:	eefc7bc6 	vcvt.u32.f64	s15, d6
 9c8:	ee170a90 	vmov	r0, s15
 9cc:	e8bd8010 	pop	{r4, pc}
 9d0:	0104b000 	mrseq	fp, (UNDEF: 4)

Disassembly of section .text.rumboot_platform_setup:

000009d4 <rumboot_platform_setup>:
 9d4:	e92d4030 	push	{r4, r5, lr}
 9d8:	e59f307c 	ldr	r3, [pc, #124]	; a5c <rumboot_platform_setup+0x88>
 9dc:	e24dd01c 	sub	sp, sp, #28
 9e0:	ee0c3f10 	mcr	15, 0, r3, cr12, cr0, {0}
 9e4:	eb0000fd 	bl	de0 <rumboot_irq_register_gic>
 9e8:	e59f2070 	ldr	r2, [pc, #112]	; a60 <rumboot_platform_setup+0x8c>
 9ec:	e59f1070 	ldr	r1, [pc, #112]	; a64 <rumboot_platform_setup+0x90>
 9f0:	e59f0070 	ldr	r0, [pc, #112]	; a68 <rumboot_platform_setup+0x94>
 9f4:	eb000a68 	bl	339c <rumboot_malloc_register_heap>
 9f8:	e59f206c 	ldr	r2, [pc, #108]	; a6c <rumboot_platform_setup+0x98>
 9fc:	e59f106c 	ldr	r1, [pc, #108]	; a70 <rumboot_platform_setup+0x9c>
 a00:	e59f006c 	ldr	r0, [pc, #108]	; a74 <rumboot_platform_setup+0xa0>
 a04:	eb000a64 	bl	339c <rumboot_malloc_register_heap>
 a08:	e3a03002 	mov	r3, #2
 a0c:	e59f5064 	ldr	r5, [pc, #100]	; a78 <rumboot_platform_setup+0xa4>
 a10:	e5cd3000 	strb	r3, [sp]
 a14:	e3a03010 	mov	r3, #16
 a18:	e3a04001 	mov	r4, #1
 a1c:	e58d3008 	str	r3, [sp, #8]
 a20:	e3a03020 	mov	r3, #32
 a24:	e1a02004 	mov	r2, r4
 a28:	e58d300c 	str	r3, [sp, #12]
 a2c:	e3a03000 	mov	r3, #0
 a30:	e1a0100d 	mov	r1, sp
 a34:	e1a00005 	mov	r0, r5
 a38:	e58d3010 	str	r3, [sp, #16]
 a3c:	e58d3014 	str	r3, [sp, #20]
 a40:	e58d4004 	str	r4, [sp, #4]
 a44:	eb0000f4 	bl	e1c <sp804_config>
 a48:	e1a01004 	mov	r1, r4
 a4c:	e1a00005 	mov	r0, r5
 a50:	eb0000e5 	bl	dec <sp804_enable>
 a54:	e28dd01c 	add	sp, sp, #28
 a58:	e8bd8030 	pop	{r4, r5, pc}
 a5c:	00000000 	andeq	r0, r0, r0
 a60:	00060000 	andeq	r0, r6, r0
 a64:	00060000 	andeq	r0, r6, r0
 a68:	000040fe 	strdeq	r4, [r0], -lr
 a6c:	0006f000 	andeq	pc, r6, r0
 a70:	00060000 	andeq	r0, r6, r0
 a74:	00004102 	andeq	r4, r0, r2, lsl #2
 a78:	0104b000 	mrseq	fp, (UNDEF: 4)

Disassembly of section .text.sdio0_enable:

00000a7c <sdio0_enable>:
 a7c:	e59f3018 	ldr	r3, [pc, #24]	; a9c <sdio0_enable+0x20>
 a80:	e5932008 	ldr	r2, [r3, #8]
 a84:	e3c22008 	bic	r2, r2, #8
 a88:	e5832008 	str	r2, [r3, #8]
 a8c:	e5930010 	ldr	r0, [r3, #16]
 a90:	e2200008 	eor	r0, r0, #8
 a94:	e7e001d0 	ubfx	r0, r0, #3, #1
 a98:	e12fff1e 	bx	lr
 a9c:	01088000 	mrseq	r8, (UNDEF: 8)

Disassembly of section .text.sdio1_enable:

00000aa0 <sdio1_enable>:
 aa0:	e59f3018 	ldr	r3, [pc, #24]	; ac0 <sdio1_enable+0x20>
 aa4:	e5932008 	ldr	r2, [r3, #8]
 aa8:	e3c22010 	bic	r2, r2, #16
 aac:	e5832008 	str	r2, [r3, #8]
 ab0:	e5930010 	ldr	r0, [r3, #16]
 ab4:	e2200010 	eor	r0, r0, #16
 ab8:	e7e00250 	ubfx	r0, r0, #4, #1
 abc:	e12fff1e 	bx	lr
 ac0:	01088000 	mrseq	r8, (UNDEF: 8)

Disassembly of section .text.spi0_1_enable:

00000ac4 <spi0_1_enable>:
 ac4:	e59f3018 	ldr	r3, [pc, #24]	; ae4 <spi0_1_enable+0x20>
 ac8:	e3a00001 	mov	r0, #1
 acc:	e5932008 	ldr	r2, [r3, #8]
 ad0:	e3822020 	orr	r2, r2, #32
 ad4:	e5832008 	str	r2, [r3, #8]
 ad8:	e3a02020 	mov	r2, #32
 adc:	e583201c 	str	r2, [r3, #28]
 ae0:	e12fff1e 	bx	lr
 ae4:	01088000 	mrseq	r8, (UNDEF: 8)

Disassembly of section .text.spi0_1_disable:

00000ae8 <spi0_1_disable>:
 ae8:	e59f200c 	ldr	r2, [pc, #12]	; afc <spi0_1_disable+0x14>
 aec:	e5923008 	ldr	r3, [r2, #8]
 af0:	e3c33020 	bic	r3, r3, #32
 af4:	e5823008 	str	r3, [r2, #8]
 af8:	e12fff1e 	bx	lr
 afc:	01088000 	mrseq	r8, (UNDEF: 8)

Disassembly of section .text.spi0_1_cs:

00000b00 <spi0_1_cs>:
 b00:	e3520000 	cmp	r2, #0
 b04:	e59f3010 	ldr	r3, [pc, #16]	; b1c <spi0_1_cs+0x1c>
 b08:	03e02020 	mvneq	r2, #32
 b0c:	13a02020 	movne	r2, #32
 b10:	05832020 	streq	r2, [r3, #32]
 b14:	1583201c 	strne	r2, [r3, #28]
 b18:	e12fff1e 	bx	lr
 b1c:	01088000 	mrseq	r8, (UNDEF: 8)

Disassembly of section .text.rumboot_platform_read_config:

00000b20 <rumboot_platform_read_config>:
 b20:	e59f3024 	ldr	r3, [pc, #36]	; b4c <rumboot_platform_read_config+0x2c>
 b24:	e5933000 	ldr	r3, [r3]
 b28:	e3130004 	tst	r3, #4
 b2c:	159f201c 	ldrne	r2, [pc, #28]	; b50 <rumboot_platform_read_config+0x30>
 b30:	059f201c 	ldreq	r2, [pc, #28]	; b54 <rumboot_platform_read_config+0x34>
 b34:	e5802010 	str	r2, [r0, #16]
 b38:	e7e020d3 	ubfx	r2, r3, #1, #1
 b3c:	e2033001 	and	r3, r3, #1
 b40:	e5c02000 	strb	r2, [r0]
 b44:	e5803004 	str	r3, [r0, #4]
 b48:	e12fff1e 	bx	lr
 b4c:	0108d000 	mrseq	sp, (UNDEF: 8)
 b50:	005f5e10 	subseq	r5, pc, r0, lsl lr	; <UNPREDICTABLE>
 b54:	0001c200 	andeq	ip, r1, r0, lsl #4

Disassembly of section .text.rumboot_platform_init_loader:

00000b58 <rumboot_platform_init_loader>:
 b58:	e92d401f 	push	{r0, r1, r2, r3, r4, lr}
 b5c:	e3a02001 	mov	r2, #1
 b60:	e59f3058 	ldr	r3, [pc, #88]	; bc0 <rumboot_platform_init_loader+0x68>
 b64:	e59f4058 	ldr	r4, [pc, #88]	; bc4 <rumboot_platform_init_loader+0x6c>
 b68:	e5832040 	str	r2, [r3, #64]	; 0x40
 b6c:	e3a02003 	mov	r2, #3
 b70:	e3a03000 	mov	r3, #0
 b74:	e5cd2001 	strb	r2, [sp, #1]
 b78:	e5cd2005 	strb	r2, [sp, #5]
 b7c:	e5902010 	ldr	r2, [r0, #16]
 b80:	e1a0100d 	mov	r1, sp
 b84:	e1a00004 	mov	r0, r4
 b88:	e5cd3002 	strb	r3, [sp, #2]
 b8c:	e5cd3003 	strb	r3, [sp, #3]
 b90:	e5cd3004 	strb	r3, [sp, #4]
 b94:	e5cd3006 	strb	r3, [sp, #6]
 b98:	e58d2008 	str	r2, [sp, #8]
 b9c:	e5cd300c 	strb	r3, [sp, #12]
 ba0:	eb000927 	bl	3044 <muart_init>
 ba4:	e1a00004 	mov	r0, r4
 ba8:	eb000947 	bl	30cc <muart_enable>
 bac:	e3a01055 	mov	r1, #85	; 0x55
 bb0:	e1a00004 	mov	r0, r4
 bb4:	eb000948 	bl	30dc <muart_write_char>
 bb8:	e28dd010 	add	sp, sp, #16
 bbc:	e8bd8010 	pop	{r4, pc}
 bc0:	0108e000 	mrseq	lr, (UNDEF: 8)
 bc4:	01044000 	mrseq	r4, (UNDEF: 4)

Disassembly of section .text.rumboot_platform_enter_host_mode:

00000bc8 <rumboot_platform_enter_host_mode>:
 bc8:	e59f3014 	ldr	r3, [pc, #20]	; be4 <rumboot_platform_enter_host_mode+0x1c>
 bcc:	e5932008 	ldr	r2, [r3, #8]
 bd0:	e3822002 	orr	r2, r2, #2
 bd4:	e5832008 	str	r2, [r3, #8]
 bd8:	e3a02002 	mov	r2, #2
 bdc:	e583201c 	str	r2, [r3, #28]
 be0:	e12fff1e 	bx	lr
 be4:	01088000 	mrseq	r8, (UNDEF: 8)

Disassembly of section .text.rumboot_platform_get_spl_area:

00000be8 <rumboot_platform_get_spl_area>:
 be8:	e59f2010 	ldr	r2, [pc, #16]	; c00 <rumboot_platform_get_spl_area+0x18>
 bec:	e59f3010 	ldr	r3, [pc, #16]	; c04 <rumboot_platform_get_spl_area+0x1c>
 bf0:	e0433002 	sub	r3, r3, r2
 bf4:	e5803000 	str	r3, [r0]
 bf8:	e1a00002 	mov	r0, r2
 bfc:	e12fff1e 	bx	lr
 c00:	00040000 	andeq	r0, r4, r0
 c04:	00060000 	andeq	r0, r6, r0

Disassembly of section .text.rumboot_platform_get_bootsources:

00000c08 <rumboot_platform_get_bootsources>:
 c08:	e59f0000 	ldr	r0, [pc]	; c10 <rumboot_platform_get_bootsources+0x8>
 c0c:	e12fff1e 	bx	lr
 c10:	00004108 	andeq	r4, r0, r8, lsl #2

Disassembly of section .text.rumboot_platform_check_entry_points:

00000c14 <rumboot_platform_check_entry_points>:
 c14:	e3a00001 	mov	r0, #1
 c18:	e12fff1e 	bx	lr

Disassembly of section .text.rumboot_platform_exec:

00000c1c <rumboot_platform_exec>:
 c1c:	e5900010 	ldr	r0, [r0, #16]
 c20:	ea000906 	b	3040 <rumboot_bootimage_execute_ep>

Disassembly of section .text.rumboot_platform_print_summary:

00000c24 <rumboot_platform_print_summary>:
 c24:	e12fff1e 	bx	lr

Disassembly of section .text.rumboot_platform_putchar:

00000c28 <rumboot_platform_putchar>:
 c28:	e59f201c 	ldr	r2, [pc, #28]	; c4c <rumboot_platform_putchar+0x24>
 c2c:	e59fc01c 	ldr	ip, [pc, #28]	; c50 <rumboot_platform_putchar+0x28>
 c30:	e59f101c 	ldr	r1, [pc, #28]	; c54 <rumboot_platform_putchar+0x2c>
 c34:	e5923014 	ldr	r3, [r2, #20]
 c38:	e003300c 	and	r3, r3, ip
 c3c:	e1530001 	cmp	r3, r1
 c40:	8afffffb 	bhi	c34 <rumboot_platform_putchar+0xc>
 c44:	e5820020 	str	r0, [r2, #32]
 c48:	e12fff1e 	bx	lr
 c4c:	01044000 	mrseq	r4, (UNDEF: 4)
 c50:	07ff0000 	ldrbeq	r0, [pc, r0]!
 c54:	03feffff 	mvnseq	pc, #1020	; 0x3fc

Disassembly of section .text.rumboot_platform_getchar:

00000c58 <rumboot_platform_getchar>:
 c58:	e92d4070 	push	{r4, r5, r6, lr}
 c5c:	e1a05000 	mov	r5, r0
 c60:	ebffff4e 	bl	9a0 <rumboot_platform_get_uptime>
 c64:	e59f4030 	ldr	r4, [pc, #48]	; c9c <rumboot_platform_getchar+0x44>
 c68:	e1a06000 	mov	r6, r0
 c6c:	ebffff4b 	bl	9a0 <rumboot_platform_get_uptime>
 c70:	e0400006 	sub	r0, r0, r6
 c74:	e1500005 	cmp	r0, r5
 c78:	3a000001 	bcc	c84 <rumboot_platform_getchar+0x2c>
 c7c:	e3e00000 	mvn	r0, #0
 c80:	e8bd8070 	pop	{r4, r5, r6, pc}
 c84:	e5943014 	ldr	r3, [r4, #20]
 c88:	e7eb3053 	ubfx	r3, r3, #0, #12
 c8c:	e3530000 	cmp	r3, #0
 c90:	0afffff5 	beq	c6c <rumboot_platform_getchar+0x14>
 c94:	e5940028 	ldr	r0, [r4, #40]	; 0x28
 c98:	e8bd8070 	pop	{r4, r5, r6, pc}
 c9c:	01044000 	mrseq	r4, (UNDEF: 4)

Disassembly of section .text.gic_init:

00000ca0 <gic_init>:
 ca0:	e59f201c 	ldr	r2, [pc, #28]	; cc4 <gic_init+0x24>
 ca4:	e3a030ff 	mov	r3, #255	; 0xff
 ca8:	e3a00000 	mov	r0, #0
 cac:	e5823004 	str	r3, [r2, #4]
 cb0:	e3a03001 	mov	r3, #1
 cb4:	e5823000 	str	r3, [r2]
 cb8:	e2422a01 	sub	r2, r2, #4096	; 0x1000
 cbc:	e5823000 	str	r3, [r2]
 cc0:	e12fff1e 	bx	lr
 cc4:	01105000 	tsteq	r0, r0

Disassembly of section .text.gic_swint:

00000cc8 <gic_swint>:
 cc8:	e3510000 	cmp	r1, #0
 ccc:	1a000003 	bne	ce0 <gic_swint+0x18>
 cd0:	e3a02801 	mov	r2, #65536	; 0x10000
 cd4:	e59f3010 	ldr	r3, [pc, #16]	; cec <gic_swint+0x24>
 cd8:	e5832f00 	str	r2, [r3, #3840]	; 0xf00
 cdc:	e12fff1e 	bx	lr
 ce0:	e92d4010 	push	{r4, lr}
 ce4:	e59f0004 	ldr	r0, [pc, #4]	; cf0 <gic_swint+0x28>
 ce8:	eb000a95 	bl	3744 <rumboot_platform_panic>
 cec:	01104000 	tsteq	r0, r0
 cf0:	00004270 	andeq	r4, r0, r0, ror r2

Disassembly of section .text.gic_begin:

00000cf4 <gic_begin>:
 cf4:	e59f3024 	ldr	r3, [pc, #36]	; d20 <gic_begin+0x2c>
 cf8:	e92d4010 	push	{r4, lr}
 cfc:	e593400c 	ldr	r4, [r3, #12]
 d00:	e3540000 	cmp	r4, #0
 d04:	1a000003 	bne	d18 <gic_begin+0x24>
 d08:	e590301c 	ldr	r3, [r0, #28]
 d0c:	e3530000 	cmp	r3, #0
 d10:	0a000000 	beq	d18 <gic_begin+0x24>
 d14:	e12fff33 	blx	r3
 d18:	e1a00004 	mov	r0, r4
 d1c:	e8bd8010 	pop	{r4, pc}
 d20:	01105000 	tsteq	r0, r0

Disassembly of section .text.gic_end:

00000d24 <gic_end>:
 d24:	e59f3018 	ldr	r3, [pc, #24]	; d44 <gic_end+0x20>
 d28:	e3510000 	cmp	r1, #0
 d2c:	e5831010 	str	r1, [r3, #16]
 d30:	112fff1e 	bxne	lr
 d34:	e5903020 	ldr	r3, [r0, #32]
 d38:	e3530000 	cmp	r3, #0
 d3c:	012fff1e 	bxeq	lr
 d40:	e12fff13 	bx	r3
 d44:	01105000 	tsteq	r0, r0

Disassembly of section .text.gic_configure:

00000d48 <gic_configure>:
 d48:	e351000f 	cmp	r1, #15
 d4c:	d12fff1e 	bxle	lr
 d50:	e3a02000 	mov	r2, #0
 d54:	e59f007c 	ldr	r0, [pc, #124]	; dd8 <gic_configure+0x90>
 d58:	e1530002 	cmp	r3, r2
 d5c:	e5802000 	str	r2, [r0]
 d60:	e2800a01 	add	r0, r0, #4096	; 0x1000
 d64:	e5802000 	str	r2, [r0]
 d68:	e2410020 	sub	r0, r1, #32
 d6c:	13a02c01 	movne	r2, #256	; 0x100
 d70:	03a02d06 	moveq	r2, #384	; 0x180
 d74:	e350001f 	cmp	r0, #31
 d78:	8a00000f 	bhi	dbc <gic_configure+0x74>
 d7c:	e3530000 	cmp	r3, #0
 d80:	13a02f41 	movne	r2, #260	; 0x104
 d84:	03a02f61 	moveq	r2, #388	; 0x184
 d88:	e1a01000 	mov	r1, r0
 d8c:	e3a00001 	mov	r0, #1
 d90:	e2823611 	add	r3, r2, #17825792	; 0x1100000
 d94:	e2833901 	add	r3, r3, #16384	; 0x4000
 d98:	e1a01110 	lsl	r1, r0, r1
 d9c:	e3a020ff 	mov	r2, #255	; 0xff
 da0:	e5831000 	str	r1, [r3]
 da4:	e59f3030 	ldr	r3, [pc, #48]	; ddc <gic_configure+0x94>
 da8:	e5832004 	str	r2, [r3, #4]
 dac:	e5830000 	str	r0, [r3]
 db0:	e2433a01 	sub	r3, r3, #4096	; 0x1000
 db4:	e5830000 	str	r0, [r3]
 db8:	e12fff1e 	bx	lr
 dbc:	e2410040 	sub	r0, r1, #64	; 0x40
 dc0:	e350001f 	cmp	r0, #31
 dc4:	8afffff0 	bhi	d8c <gic_configure+0x44>
 dc8:	e3530000 	cmp	r3, #0
 dcc:	13a02f42 	movne	r2, #264	; 0x108
 dd0:	03a02f62 	moveq	r2, #392	; 0x188
 dd4:	eaffffeb 	b	d88 <gic_configure+0x40>
 dd8:	01104000 	tsteq	r0, r0
 ddc:	01105000 	tsteq	r0, r0

Disassembly of section .text.rumboot_irq_register_gic:

00000de0 <rumboot_irq_register_gic>:
 de0:	e59f0000 	ldr	r0, [pc]	; de8 <rumboot_irq_register_gic+0x8>
 de4:	ea0002b1 	b	18b0 <rumboot_irq_register_controller>
 de8:	00004298 	muleq	r0, r8, r2

Disassembly of section .text.sp804_enable:

00000dec <sp804_enable>:
 dec:	e3510000 	cmp	r1, #0
 df0:	13a02028 	movne	r2, #40	; 0x28
 df4:	03a02008 	moveq	r2, #8
 df8:	e7923000 	ldr	r3, [r2, r0]
 dfc:	e3833080 	orr	r3, r3, #128	; 0x80
 e00:	e7823000 	str	r3, [r2, r0]
 e04:	e12fff1e 	bx	lr

Disassembly of section .text.sp804_get_value:

00000e08 <sp804_get_value>:
 e08:	e3510000 	cmp	r1, #0
 e0c:	13a03024 	movne	r3, #36	; 0x24
 e10:	03a03004 	moveq	r3, #4
 e14:	e7930000 	ldr	r0, [r3, r0]
 e18:	e12fff1e 	bx	lr

Disassembly of section .text.sp804_config:

00000e1c <sp804_config>:
 e1c:	e5d13000 	ldrb	r3, [r1]
 e20:	e3530000 	cmp	r3, #0
 e24:	03a03001 	moveq	r3, #1
 e28:	0a000002 	beq	e38 <sp804_config+0x1c>
 e2c:	e3530001 	cmp	r3, #1
 e30:	03a03040 	moveq	r3, #64	; 0x40
 e34:	13a03000 	movne	r3, #0
 e38:	e591c004 	ldr	ip, [r1, #4]
 e3c:	e35c0000 	cmp	ip, #0
 e40:	e591c008 	ldr	ip, [r1, #8]
 e44:	03c33020 	biceq	r3, r3, #32
 e48:	13833020 	orrne	r3, r3, #32
 e4c:	e35c0c01 	cmp	ip, #256	; 0x100
 e50:	03c33004 	biceq	r3, r3, #4
 e54:	03833008 	orreq	r3, r3, #8
 e58:	0a000003 	beq	e6c <sp804_config+0x50>
 e5c:	e35c0010 	cmp	ip, #16
 e60:	03c33008 	biceq	r3, r3, #8
 e64:	03833004 	orreq	r3, r3, #4
 e68:	13c3300c 	bicne	r3, r3, #12
 e6c:	e591c00c 	ldr	ip, [r1, #12]
 e70:	e35c0020 	cmp	ip, #32
 e74:	03833002 	orreq	r3, r3, #2
 e78:	13c33002 	bicne	r3, r3, #2
 e7c:	e3520000 	cmp	r2, #0
 e80:	e591c010 	ldr	ip, [r1, #16]
 e84:	e5912014 	ldr	r2, [r1, #20]
 e88:	0a000005 	beq	ea4 <sp804_config+0x88>
 e8c:	e35c0000 	cmp	ip, #0
 e90:	e5803028 	str	r3, [r0, #40]	; 0x28
 e94:	1580c020 	strne	ip, [r0, #32]
 e98:	e3520000 	cmp	r2, #0
 e9c:	15802038 	strne	r2, [r0, #56]	; 0x38
 ea0:	e12fff1e 	bx	lr
 ea4:	e35c0000 	cmp	ip, #0
 ea8:	e5803008 	str	r3, [r0, #8]
 eac:	1580c000 	strne	ip, [r0]
 eb0:	e3520000 	cmp	r2, #0
 eb4:	15802018 	strne	r2, [r0, #24]
 eb8:	e12fff1e 	bx	lr

Disassembly of section .text.crc32:

00000ebc <crc32>:
 ebc:	e1e00000 	mvn	r0, r0
 ec0:	e0812002 	add	r2, r1, r2
 ec4:	e59fc024 	ldr	ip, [pc, #36]	; ef0 <crc32+0x34>
 ec8:	e1510002 	cmp	r1, r2
 ecc:	1a000001 	bne	ed8 <crc32+0x1c>
 ed0:	e1e00000 	mvn	r0, r0
 ed4:	e12fff1e 	bx	lr
 ed8:	e4d13001 	ldrb	r3, [r1], #1
 edc:	e0233000 	eor	r3, r3, r0
 ee0:	e6ef3073 	uxtb	r3, r3
 ee4:	e79c3103 	ldr	r3, [ip, r3, lsl #2]
 ee8:	e0230420 	eor	r0, r3, r0, lsr #8
 eec:	eafffff5 	b	ec8 <crc32+0xc>
 ef0:	000042c0 	andeq	r4, r0, r0, asr #5

Disassembly of section .text.rumboot_print_logo:

00000ef4 <rumboot_print_logo>:
 ef4:	e92d4010 	push	{r4, lr}
 ef8:	e59f000c 	ldr	r0, [pc, #12]	; f0c <rumboot_print_logo+0x18>
 efc:	eb000004 	bl	f14 <rumboot_putstring>
 f00:	e59f0008 	ldr	r0, [pc, #8]	; f10 <rumboot_print_logo+0x1c>
 f04:	e8bd4010 	pop	{r4, lr}
 f08:	ea000001 	b	f14 <rumboot_putstring>
 f0c:	000046c0 	andeq	r4, r0, r0, asr #13
 f10:	000047af 	andeq	r4, r0, pc, lsr #15

Disassembly of section .text.rumboot_putstring:

00000f14 <rumboot_putstring>:
 f14:	e92d4010 	push	{r4, lr}
 f18:	e2404001 	sub	r4, r0, #1
 f1c:	e5f40001 	ldrb	r0, [r4, #1]!
 f20:	e3500000 	cmp	r0, #0
 f24:	1a000000 	bne	f2c <rumboot_putstring+0x18>
 f28:	e8bd8010 	pop	{r4, pc}
 f2c:	ebffff3d 	bl	c28 <rumboot_platform_putchar>
 f30:	eafffff9 	b	f1c <rumboot_putstring+0x8>

Disassembly of section .text.rumboot_number:

00000f34 <rumboot_number>:
     f34:	e92d4ff0 	push	{r4, r5, r6, r7, r8, r9, sl, fp, lr}
     f38:	e24dd05c 	sub	sp, sp, #92	; 0x5c
     f3c:	e1a04002 	mov	r4, r2
     f40:	e59d5080 	ldr	r5, [sp, #128]	; 0x80
     f44:	e59f21f0 	ldr	r2, [pc, #496]	; 113c <rumboot_number+0x208>
     f48:	e3150040 	tst	r5, #64	; 0x40
     f4c:	e59fa1ec 	ldr	sl, [pc, #492]	; 1140 <rumboot_number+0x20c>
     f50:	11a0a002 	movne	sl, r2
     f54:	e3150010 	tst	r5, #16
     f58:	e2412002 	sub	r2, r1, #2
     f5c:	13c55001 	bicne	r5, r5, #1
     f60:	e3520022 	cmp	r2, #34	; 0x22
     f64:	e1a09000 	mov	r9, r0
     f68:	e1a08001 	mov	r8, r1
     f6c:	8a000051 	bhi	10b8 <rumboot_number+0x184>
     f70:	e3150001 	tst	r5, #1
     f74:	13a02030 	movne	r2, #48	; 0x30
     f78:	03a02020 	moveq	r2, #32
     f7c:	e2157002 	ands	r7, r5, #2
     f80:	e58d2004 	str	r2, [sp, #4]
     f84:	0a00000b 	beq	fb8 <rumboot_number+0x84>
     f88:	e3500000 	cmp	r0, #0
     f8c:	b2609000 	rsblt	r9, r0, #0
     f90:	b2444001 	sublt	r4, r4, #1
     f94:	b3a0702d 	movlt	r7, #45	; 0x2d
     f98:	ba000006 	blt	fb8 <rumboot_number+0x84>
     f9c:	e3150004 	tst	r5, #4
     fa0:	12444001 	subne	r4, r4, #1
     fa4:	13a0702b 	movne	r7, #43	; 0x2b
     fa8:	1a000002 	bne	fb8 <rumboot_number+0x84>
     fac:	e2157008 	ands	r7, r5, #8
     fb0:	12444001 	subne	r4, r4, #1
     fb4:	13a07020 	movne	r7, #32
     fb8:	e215b020 	ands	fp, r5, #32
     fbc:	0a000004 	beq	fd4 <rumboot_number+0xa0>
     fc0:	e3580010 	cmp	r8, #16
     fc4:	02444002 	subeq	r4, r4, #2
     fc8:	0a000001 	beq	fd4 <rumboot_number+0xa0>
     fcc:	e3580008 	cmp	r8, #8
     fd0:	02444001 	subeq	r4, r4, #1
     fd4:	e3590000 	cmp	r9, #0
     fd8:	03a02030 	moveq	r2, #48	; 0x30
     fdc:	03a06001 	moveq	r6, #1
     fe0:	05cd2014 	strbeq	r2, [sp, #20]
     fe4:	0a000011 	beq	1030 <rumboot_number+0xfc>
     fe8:	e3a06000 	mov	r6, #0
     fec:	e58d300c 	str	r3, [sp, #12]
     ff0:	e2866001 	add	r6, r6, #1
     ff4:	e28d3014 	add	r3, sp, #20
     ff8:	e0832006 	add	r2, r3, r6
     ffc:	e1a00009 	mov	r0, r9
    1000:	e1a01008 	mov	r1, r8
    1004:	e58d2008 	str	r2, [sp, #8]
    1008:	ebfffca5 	bl	2a4 <__aeabi_uidivmod>
    100c:	e59d2008 	ldr	r2, [sp, #8]
    1010:	e1a00009 	mov	r0, r9
    1014:	e7da1001 	ldrb	r1, [sl, r1]
    1018:	e5421001 	strb	r1, [r2, #-1]
    101c:	e1a01008 	mov	r1, r8
    1020:	ebfffc75 	bl	1fc <__udivsi3>
    1024:	e59d300c 	ldr	r3, [sp, #12]
    1028:	e2509000 	subs	r9, r0, #0
    102c:	1affffee 	bne	fec <rumboot_number+0xb8>
    1030:	e1560003 	cmp	r6, r3
    1034:	a1a09006 	movge	r9, r6
    1038:	b1a09003 	movlt	r9, r3
    103c:	e3150011 	tst	r5, #17
    1040:	e0444009 	sub	r4, r4, r9
    1044:	01a0a004 	moveq	sl, r4
    1048:	0a00001f 	beq	10cc <rumboot_number+0x198>
    104c:	e3570000 	cmp	r7, #0
    1050:	0a000001 	beq	105c <rumboot_number+0x128>
    1054:	e1a00007 	mov	r0, r7
    1058:	ebfffef2 	bl	c28 <rumboot_platform_putchar>
    105c:	e35b0000 	cmp	fp, #0
    1060:	0a000008 	beq	1088 <rumboot_number+0x154>
    1064:	e3580008 	cmp	r8, #8
    1068:	03a00030 	moveq	r0, #48	; 0x30
    106c:	0a000004 	beq	1084 <rumboot_number+0x150>
    1070:	e3580010 	cmp	r8, #16
    1074:	1a000003 	bne	1088 <rumboot_number+0x154>
    1078:	e3a00030 	mov	r0, #48	; 0x30
    107c:	ebfffee9 	bl	c28 <rumboot_platform_putchar>
    1080:	e3a00078 	mov	r0, #120	; 0x78
    1084:	ebfffee7 	bl	c28 <rumboot_platform_putchar>
    1088:	e3150010 	tst	r5, #16
    108c:	01a05004 	moveq	r5, r4
    1090:	0a000017 	beq	10f4 <rumboot_number+0x1c0>
    1094:	e1560009 	cmp	r6, r9
    1098:	ba00001c 	blt	1110 <rumboot_number+0x1dc>
    109c:	e28d5014 	add	r5, sp, #20
    10a0:	e0856006 	add	r6, r5, r6
    10a4:	e0463005 	sub	r3, r6, r5
    10a8:	e3530000 	cmp	r3, #0
    10ac:	ca00001b 	bgt	1120 <rumboot_number+0x1ec>
    10b0:	e3540000 	cmp	r4, #0
    10b4:	ca00001c 	bgt	112c <rumboot_number+0x1f8>
    10b8:	e28dd05c 	add	sp, sp, #92	; 0x5c
    10bc:	e8bd8ff0 	pop	{r4, r5, r6, r7, r8, r9, sl, fp, pc}
    10c0:	e3a00020 	mov	r0, #32
    10c4:	ebfffed7 	bl	c28 <rumboot_platform_putchar>
    10c8:	e24aa001 	sub	sl, sl, #1
    10cc:	e35a0000 	cmp	sl, #0
    10d0:	cafffffa 	bgt	10c0 <rumboot_number+0x18c>
    10d4:	e2443001 	sub	r3, r4, #1
    10d8:	e3540000 	cmp	r4, #0
    10dc:	a0434004 	subge	r4, r3, r4
    10e0:	b1a04003 	movlt	r4, r3
    10e4:	eaffffd8 	b	104c <rumboot_number+0x118>
    10e8:	e59d0004 	ldr	r0, [sp, #4]
    10ec:	ebfffecd 	bl	c28 <rumboot_platform_putchar>
    10f0:	e2455001 	sub	r5, r5, #1
    10f4:	e3550000 	cmp	r5, #0
    10f8:	cafffffa 	bgt	10e8 <rumboot_number+0x1b4>
    10fc:	e2443001 	sub	r3, r4, #1
    1100:	e3540000 	cmp	r4, #0
    1104:	a0434004 	subge	r4, r3, r4
    1108:	b1a04003 	movlt	r4, r3
    110c:	eaffffe0 	b	1094 <rumboot_number+0x160>
    1110:	e3a00030 	mov	r0, #48	; 0x30
    1114:	ebfffec3 	bl	c28 <rumboot_platform_putchar>
    1118:	e2499001 	sub	r9, r9, #1
    111c:	eaffffdc 	b	1094 <rumboot_number+0x160>
    1120:	e5760001 	ldrb	r0, [r6, #-1]!
    1124:	ebfffebf 	bl	c28 <rumboot_platform_putchar>
    1128:	eaffffdd 	b	10a4 <rumboot_number+0x170>
    112c:	e3a00020 	mov	r0, #32
    1130:	ebfffebc 	bl	c28 <rumboot_platform_putchar>
    1134:	e2444001 	sub	r4, r4, #1
    1138:	eaffffdc 	b	10b0 <rumboot_number+0x17c>
    113c:	000047f7 	strdeq	r4, [r0], -r7
    1140:	000047d2 	ldrdeq	r4, [r0], -r2

Disassembly of section .text.eaddr:

00001144 <eaddr>:
    1144:	e59f20c0 	ldr	r2, [pc, #192]	; 120c <eaddr+0xc8>
    1148:	e92d40f0 	push	{r4, r5, r6, r7, lr}
    114c:	e3130040 	tst	r3, #64	; 0x40
    1150:	e59fe0b8 	ldr	lr, [pc, #184]	; 1210 <eaddr+0xcc>
    1154:	11a0e002 	movne	lr, r2
    1158:	e3a02000 	mov	r2, #0
    115c:	e24dd01c 	sub	sp, sp, #28
    1160:	e1a04001 	mov	r4, r1
    1164:	e1a06002 	mov	r6, r2
    1168:	e3a0703a 	mov	r7, #58	; 0x3a
    116c:	e7d0c002 	ldrb	ip, [r0, r2]
    1170:	e28d1018 	add	r1, sp, #24
    1174:	e7de522c 	ldrb	r5, [lr, ip, lsr #4]
    1178:	e20cc00f 	and	ip, ip, #15
    117c:	e2822001 	add	r2, r2, #1
    1180:	e0811006 	add	r1, r1, r6
    1184:	e7dec00c 	ldrb	ip, [lr, ip]
    1188:	e3520006 	cmp	r2, #6
    118c:	e5415018 	strb	r5, [r1, #-24]	; 0xffffffe8
    1190:	e541c017 	strb	ip, [r1, #-23]	; 0xffffffe9
    1194:	e2865002 	add	r5, r6, #2
    1198:	1a00000f 	bne	11dc <eaddr+0x98>
    119c:	e3130010 	tst	r3, #16
    11a0:	1a000003 	bne	11b4 <eaddr+0x70>
    11a4:	e2444001 	sub	r4, r4, #1
    11a8:	e2843001 	add	r3, r4, #1
    11ac:	e1550003 	cmp	r5, r3
    11b0:	ba00000e 	blt	11f0 <eaddr+0xac>
    11b4:	e3a06000 	mov	r6, #0
    11b8:	e7dd0006 	ldrb	r0, [sp, r6]
    11bc:	e2866001 	add	r6, r6, #1
    11c0:	ebfffe98 	bl	c28 <rumboot_platform_putchar>
    11c4:	e1550006 	cmp	r5, r6
    11c8:	1afffffa 	bne	11b8 <eaddr+0x74>
    11cc:	e1550004 	cmp	r5, r4
    11d0:	ba000009 	blt	11fc <eaddr+0xb8>
    11d4:	e28dd01c 	add	sp, sp, #28
    11d8:	e8bd80f0 	pop	{r4, r5, r6, r7, pc}
    11dc:	e28d1018 	add	r1, sp, #24
    11e0:	e0815005 	add	r5, r1, r5
    11e4:	e2866003 	add	r6, r6, #3
    11e8:	e5457018 	strb	r7, [r5, #-24]	; 0xffffffe8
    11ec:	eaffffde 	b	116c <eaddr+0x28>
    11f0:	e3a00020 	mov	r0, #32
    11f4:	ebfffe8b 	bl	c28 <rumboot_platform_putchar>
    11f8:	eaffffe9 	b	11a4 <eaddr+0x60>
    11fc:	e3a00020 	mov	r0, #32
    1200:	ebfffe88 	bl	c28 <rumboot_platform_putchar>
    1204:	e2444001 	sub	r4, r4, #1
    1208:	eaffffef 	b	11cc <eaddr+0x88>
    120c:	000047f7 	strdeq	r4, [r0], -r7
    1210:	000047d2 	ldrdeq	r4, [r0], -r2

Disassembly of section .text.rumboot_vprintf:

00001214 <rumboot_vprintf>:
    1214:	e92d4ff0 	push	{r4, r5, r6, r7, r8, r9, sl, fp, lr}
    1218:	e1a06000 	mov	r6, r0
    121c:	e24dd034 	sub	sp, sp, #52	; 0x34
    1220:	e1a08001 	mov	r8, r1
    1224:	e59fb4b8 	ldr	fp, [pc, #1208]	; 16e4 <rumboot_vprintf+0x4d0>
    1228:	e5d60000 	ldrb	r0, [r6]
    122c:	e3500000 	cmp	r0, #0
    1230:	1a000001 	bne	123c <rumboot_vprintf+0x28>
    1234:	e28dd034 	add	sp, sp, #52	; 0x34
    1238:	e8bd8ff0 	pop	{r4, r5, r6, r7, r8, r9, sl, fp, pc}
    123c:	e3500025 	cmp	r0, #37	; 0x25
    1240:	1a000062 	bne	13d0 <rumboot_vprintf+0x1bc>
    1244:	e3a05000 	mov	r5, #0
    1248:	e1a02006 	mov	r2, r6
    124c:	e5f63001 	ldrb	r3, [r6, #1]!
    1250:	e353002b 	cmp	r3, #43	; 0x2b
    1254:	0a00001d 	beq	12d0 <rumboot_vprintf+0xbc>
    1258:	8a000014 	bhi	12b0 <rumboot_vprintf+0x9c>
    125c:	e3530020 	cmp	r3, #32
    1260:	0a00001c 	beq	12d8 <rumboot_vprintf+0xc4>
    1264:	e3530023 	cmp	r3, #35	; 0x23
    1268:	0a00001c 	beq	12e0 <rumboot_vprintf+0xcc>
    126c:	e2431030 	sub	r1, r3, #48	; 0x30
    1270:	e3510009 	cmp	r1, #9
    1274:	91a02006 	movls	r2, r6
    1278:	93a04000 	movls	r4, #0
    127c:	93a0000a 	movls	r0, #10
    1280:	9a00001a 	bls	12f0 <rumboot_vprintf+0xdc>
    1284:	e353002a 	cmp	r3, #42	; 0x2a
    1288:	13e04000 	mvnne	r4, #0
    128c:	1a00001c 	bne	1304 <rumboot_vprintf+0xf0>
    1290:	e5984000 	ldr	r4, [r8]
    1294:	e2883004 	add	r3, r8, #4
    1298:	e3540000 	cmp	r4, #0
    129c:	e2826002 	add	r6, r2, #2
    12a0:	b2644000 	rsblt	r4, r4, #0
    12a4:	b3855010 	orrlt	r5, r5, #16
    12a8:	e1a08003 	mov	r8, r3
    12ac:	ea000014 	b	1304 <rumboot_vprintf+0xf0>
    12b0:	e353002d 	cmp	r3, #45	; 0x2d
    12b4:	0a000003 	beq	12c8 <rumboot_vprintf+0xb4>
    12b8:	e3530030 	cmp	r3, #48	; 0x30
    12bc:	1affffea 	bne	126c <rumboot_vprintf+0x58>
    12c0:	e3855001 	orr	r5, r5, #1
    12c4:	eaffffdf 	b	1248 <rumboot_vprintf+0x34>
    12c8:	e3855010 	orr	r5, r5, #16
    12cc:	eaffffdd 	b	1248 <rumboot_vprintf+0x34>
    12d0:	e3855004 	orr	r5, r5, #4
    12d4:	eaffffdb 	b	1248 <rumboot_vprintf+0x34>
    12d8:	e3855008 	orr	r5, r5, #8
    12dc:	eaffffd9 	b	1248 <rumboot_vprintf+0x34>
    12e0:	e3855020 	orr	r5, r5, #32
    12e4:	eaffffd7 	b	1248 <rumboot_vprintf+0x34>
    12e8:	e0243490 	mla	r4, r0, r4, r3
    12ec:	e2444030 	sub	r4, r4, #48	; 0x30
    12f0:	e1a06002 	mov	r6, r2
    12f4:	e4d23001 	ldrb	r3, [r2], #1
    12f8:	e2431030 	sub	r1, r3, #48	; 0x30
    12fc:	e3510009 	cmp	r1, #9
    1300:	9afffff8 	bls	12e8 <rumboot_vprintf+0xd4>
    1304:	e5d63000 	ldrb	r3, [r6]
    1308:	e353002e 	cmp	r3, #46	; 0x2e
    130c:	13e02000 	mvnne	r2, #0
    1310:	1a000015 	bne	136c <rumboot_vprintf+0x158>
    1314:	e5d62001 	ldrb	r2, [r6, #1]
    1318:	e2863001 	add	r3, r6, #1
    131c:	e2421030 	sub	r1, r2, #48	; 0x30
    1320:	e3510009 	cmp	r1, #9
    1324:	93a02000 	movls	r2, #0
    1328:	93a0c00a 	movls	ip, #10
    132c:	9a000009 	bls	1358 <rumboot_vprintf+0x144>
    1330:	e352002a 	cmp	r2, #42	; 0x2a
    1334:	02866002 	addeq	r6, r6, #2
    1338:	05982000 	ldreq	r2, [r8]
    133c:	11a06003 	movne	r6, r3
    1340:	01c22fc2 	biceq	r2, r2, r2, asr #31
    1344:	02888004 	addeq	r8, r8, #4
    1348:	13a02000 	movne	r2, #0
    134c:	ea000006 	b	136c <rumboot_vprintf+0x158>
    1350:	e022129c 	mla	r2, ip, r2, r1
    1354:	e2422030 	sub	r2, r2, #48	; 0x30
    1358:	e1a06003 	mov	r6, r3
    135c:	e4d31001 	ldrb	r1, [r3], #1
    1360:	e2410030 	sub	r0, r1, #48	; 0x30
    1364:	e3500009 	cmp	r0, #9
    1368:	9afffff8 	bls	1350 <rumboot_vprintf+0x13c>
    136c:	e5d60000 	ldrb	r0, [r6]
    1370:	e20030df 	and	r3, r0, #223	; 0xdf
    1374:	e353004c 	cmp	r3, #76	; 0x4c
    1378:	02866001 	addeq	r6, r6, #1
    137c:	13e00000 	mvnne	r0, #0
    1380:	e5d63000 	ldrb	r3, [r6]
    1384:	e3530069 	cmp	r3, #105	; 0x69
    1388:	0a000017 	beq	13ec <rumboot_vprintf+0x1d8>
    138c:	8a000019 	bhi	13f8 <rumboot_vprintf+0x1e4>
    1390:	e3530061 	cmp	r3, #97	; 0x61
    1394:	0a00006d 	beq	1550 <rumboot_vprintf+0x33c>
    1398:	8a00000f 	bhi	13dc <rumboot_vprintf+0x1c8>
    139c:	e3530041 	cmp	r3, #65	; 0x41
    13a0:	0a000069 	beq	154c <rumboot_vprintf+0x338>
    13a4:	e3530058 	cmp	r3, #88	; 0x58
    13a8:	03855040 	orreq	r5, r5, #64	; 0x40
    13ac:	0a000027 	beq	1450 <rumboot_vprintf+0x23c>
    13b0:	e3530025 	cmp	r3, #37	; 0x25
    13b4:	0a000001 	beq	13c0 <rumboot_vprintf+0x1ac>
    13b8:	e3a00025 	mov	r0, #37	; 0x25
    13bc:	ebfffe19 	bl	c28 <rumboot_platform_putchar>
    13c0:	e5d60000 	ldrb	r0, [r6]
    13c4:	e3500000 	cmp	r0, #0
    13c8:	02466001 	subeq	r6, r6, #1
    13cc:	0a000000 	beq	13d4 <rumboot_vprintf+0x1c0>
    13d0:	ebfffe14 	bl	c28 <rumboot_platform_putchar>
    13d4:	e1a07008 	mov	r7, r8
    13d8:	ea00002e 	b	1498 <rumboot_vprintf+0x284>
    13dc:	e3530063 	cmp	r3, #99	; 0x63
    13e0:	0a000021 	beq	146c <rumboot_vprintf+0x258>
    13e4:	e3530064 	cmp	r3, #100	; 0x64
    13e8:	1afffff0 	bne	13b0 <rumboot_vprintf+0x19c>
    13ec:	e3855002 	orr	r5, r5, #2
    13f0:	e3a0100a 	mov	r1, #10
    13f4:	ea000016 	b	1454 <rumboot_vprintf+0x240>
    13f8:	e3530073 	cmp	r3, #115	; 0x73
    13fc:	0a00002d 	beq	14b8 <rumboot_vprintf+0x2a4>
    1400:	8a00000e 	bhi	1440 <rumboot_vprintf+0x22c>
    1404:	e353006f 	cmp	r3, #111	; 0x6f
    1408:	0a0000b3 	beq	16dc <rumboot_vprintf+0x4c8>
    140c:	e3530070 	cmp	r3, #112	; 0x70
    1410:	1affffe6 	bne	13b0 <rumboot_vprintf+0x19c>
    1414:	e3740001 	cmn	r4, #1
    1418:	03855001 	orreq	r5, r5, #1
    141c:	03a04008 	moveq	r4, #8
    1420:	e58d5000 	str	r5, [sp]
    1424:	e1a03002 	mov	r3, r2
    1428:	e2887004 	add	r7, r8, #4
    142c:	e1a02004 	mov	r2, r4
    1430:	e3a01010 	mov	r1, #16
    1434:	e5980000 	ldr	r0, [r8]
    1438:	ebfffebd 	bl	f34 <rumboot_number>
    143c:	ea000015 	b	1498 <rumboot_vprintf+0x284>
    1440:	e3530075 	cmp	r3, #117	; 0x75
    1444:	0affffe9 	beq	13f0 <rumboot_vprintf+0x1dc>
    1448:	e3530078 	cmp	r3, #120	; 0x78
    144c:	1affffd7 	bne	13b0 <rumboot_vprintf+0x19c>
    1450:	e3a01010 	mov	r1, #16
    1454:	e5980000 	ldr	r0, [r8]
    1458:	e1a03002 	mov	r3, r2
    145c:	e2887004 	add	r7, r8, #4
    1460:	e58d5000 	str	r5, [sp]
    1464:	e1a02004 	mov	r2, r4
    1468:	eafffff2 	b	1438 <rumboot_vprintf+0x224>
    146c:	e3150010 	tst	r5, #16
    1470:	1a000002 	bne	1480 <rumboot_vprintf+0x26c>
    1474:	e2444001 	sub	r4, r4, #1
    1478:	e3540000 	cmp	r4, #0
    147c:	ca000008 	bgt	14a4 <rumboot_vprintf+0x290>
    1480:	e2887004 	add	r7, r8, #4
    1484:	e5d80000 	ldrb	r0, [r8]
    1488:	e2444001 	sub	r4, r4, #1
    148c:	ebfffde5 	bl	c28 <rumboot_platform_putchar>
    1490:	e3540000 	cmp	r4, #0
    1494:	ca000005 	bgt	14b0 <rumboot_vprintf+0x29c>
    1498:	e2866001 	add	r6, r6, #1
    149c:	e1a08007 	mov	r8, r7
    14a0:	eaffff60 	b	1228 <rumboot_vprintf+0x14>
    14a4:	e3a00020 	mov	r0, #32
    14a8:	ebfffdde 	bl	c28 <rumboot_platform_putchar>
    14ac:	eafffff0 	b	1474 <rumboot_vprintf+0x260>
    14b0:	e3a00020 	mov	r0, #32
    14b4:	eafffff3 	b	1488 <rumboot_vprintf+0x274>
    14b8:	e2887004 	add	r7, r8, #4
    14bc:	e5988000 	ldr	r8, [r8]
    14c0:	e59f3220 	ldr	r3, [pc, #544]	; 16e8 <rumboot_vprintf+0x4d4>
    14c4:	e3580000 	cmp	r8, #0
    14c8:	01a08003 	moveq	r8, r3
    14cc:	e0882002 	add	r2, r8, r2
    14d0:	e1a03008 	mov	r3, r8
    14d4:	e5d31000 	ldrb	r1, [r3]
    14d8:	e3510000 	cmp	r1, #0
    14dc:	1a000010 	bne	1524 <rumboot_vprintf+0x310>
    14e0:	e3150010 	tst	r5, #16
    14e4:	e0439008 	sub	r9, r3, r8
    14e8:	1a000003 	bne	14fc <rumboot_vprintf+0x2e8>
    14ec:	e2444001 	sub	r4, r4, #1
    14f0:	e2843001 	add	r3, r4, #1
    14f4:	e1590003 	cmp	r9, r3
    14f8:	ba00000d 	blt	1534 <rumboot_vprintf+0x320>
    14fc:	e1a05008 	mov	r5, r8
    1500:	e0453008 	sub	r3, r5, r8
    1504:	e1590003 	cmp	r9, r3
    1508:	ca00000c 	bgt	1540 <rumboot_vprintf+0x32c>
    150c:	e1540009 	cmp	r4, r9
    1510:	daffffe0 	ble	1498 <rumboot_vprintf+0x284>
    1514:	e3a00020 	mov	r0, #32
    1518:	ebfffdc2 	bl	c28 <rumboot_platform_putchar>
    151c:	e2444001 	sub	r4, r4, #1
    1520:	eafffff9 	b	150c <rumboot_vprintf+0x2f8>
    1524:	e1520003 	cmp	r2, r3
    1528:	0affffec 	beq	14e0 <rumboot_vprintf+0x2cc>
    152c:	e2833001 	add	r3, r3, #1
    1530:	eaffffe7 	b	14d4 <rumboot_vprintf+0x2c0>
    1534:	e3a00020 	mov	r0, #32
    1538:	ebfffdba 	bl	c28 <rumboot_platform_putchar>
    153c:	eaffffea 	b	14ec <rumboot_vprintf+0x2d8>
    1540:	e4d50001 	ldrb	r0, [r5], #1
    1544:	ebfffdb7 	bl	c28 <rumboot_platform_putchar>
    1548:	eaffffec 	b	1500 <rumboot_vprintf+0x2ec>
    154c:	e3855040 	orr	r5, r5, #64	; 0x40
    1550:	e350006c 	cmp	r0, #108	; 0x6c
    1554:	e2887004 	add	r7, r8, #4
    1558:	1a000004 	bne	1570 <rumboot_vprintf+0x35c>
    155c:	e1a03005 	mov	r3, r5
    1560:	e1a01004 	mov	r1, r4
    1564:	e5980000 	ldr	r0, [r8]
    1568:	ebfffef5 	bl	1144 <eaddr>
    156c:	eaffffc9 	b	1498 <rumboot_vprintf+0x284>
    1570:	e5983000 	ldr	r3, [r8]
    1574:	e58d300c 	str	r3, [sp, #12]
    1578:	e3a03000 	mov	r3, #0
    157c:	e1a09003 	mov	r9, r3
    1580:	e59d200c 	ldr	r2, [sp, #12]
    1584:	e2898001 	add	r8, r9, #1
    1588:	e7d2a003 	ldrb	sl, [r2, r3]
    158c:	e28d2030 	add	r2, sp, #48	; 0x30
    1590:	e35a0000 	cmp	sl, #0
    1594:	e0822009 	add	r2, r2, r9
    1598:	03a01030 	moveq	r1, #48	; 0x30
    159c:	05421018 	strbeq	r1, [r2, #-24]	; 0xffffffe8
    15a0:	0a00001f 	beq	1624 <rumboot_vprintf+0x410>
    15a4:	e35a0063 	cmp	sl, #99	; 0x63
    15a8:	e58d2014 	str	r2, [sp, #20]
    15ac:	da000038 	ble	1694 <rumboot_vprintf+0x480>
    15b0:	e3a01064 	mov	r1, #100	; 0x64
    15b4:	e1a0000a 	mov	r0, sl
    15b8:	e58d3010 	str	r3, [sp, #16]
    15bc:	ebfffb40 	bl	2c4 <__divsi3>
    15c0:	e59d2014 	ldr	r2, [sp, #20]
    15c4:	e2899002 	add	r9, r9, #2
    15c8:	e7db1000 	ldrb	r1, [fp, r0]
    15cc:	e1a0000a 	mov	r0, sl
    15d0:	e5421018 	strb	r1, [r2, #-24]	; 0xffffffe8
    15d4:	e3a01064 	mov	r1, #100	; 0x64
    15d8:	ebfffb70 	bl	3a0 <__aeabi_idivmod>
    15dc:	e28d3030 	add	r3, sp, #48	; 0x30
    15e0:	e0838008 	add	r8, r3, r8
    15e4:	e1a0a001 	mov	sl, r1
    15e8:	e1a0000a 	mov	r0, sl
    15ec:	e3a0100a 	mov	r1, #10
    15f0:	ebfffb33 	bl	2c4 <__divsi3>
    15f4:	e3a0100a 	mov	r1, #10
    15f8:	e7db2000 	ldrb	r2, [fp, r0]
    15fc:	e1a0000a 	mov	r0, sl
    1600:	e5482018 	strb	r2, [r8, #-24]	; 0xffffffe8
    1604:	ebfffb65 	bl	3a0 <__aeabi_idivmod>
    1608:	e1a0a001 	mov	sl, r1
    160c:	e59d3010 	ldr	r3, [sp, #16]
    1610:	e28d2030 	add	r2, sp, #48	; 0x30
    1614:	e2898001 	add	r8, r9, #1
    1618:	e0829009 	add	r9, r2, r9
    161c:	e7db200a 	ldrb	r2, [fp, sl]
    1620:	e5492018 	strb	r2, [r9, #-24]	; 0xffffffe8
    1624:	e2833001 	add	r3, r3, #1
    1628:	e3530004 	cmp	r3, #4
    162c:	1a000012 	bne	167c <rumboot_vprintf+0x468>
    1630:	e3150010 	tst	r5, #16
    1634:	1a000003 	bne	1648 <rumboot_vprintf+0x434>
    1638:	e2444001 	sub	r4, r4, #1
    163c:	e2843001 	add	r3, r4, #1
    1640:	e1530008 	cmp	r3, r8
    1644:	ca000021 	bgt	16d0 <rumboot_vprintf+0x4bc>
    1648:	e3a05000 	mov	r5, #0
    164c:	e28d9018 	add	r9, sp, #24
    1650:	e7d90005 	ldrb	r0, [r9, r5]
    1654:	e2855001 	add	r5, r5, #1
    1658:	ebfffd72 	bl	c28 <rumboot_platform_putchar>
    165c:	e1550008 	cmp	r5, r8
    1660:	1afffffa 	bne	1650 <rumboot_vprintf+0x43c>
    1664:	e1540008 	cmp	r4, r8
    1668:	daffff8a 	ble	1498 <rumboot_vprintf+0x284>
    166c:	e3a00020 	mov	r0, #32
    1670:	ebfffd6c 	bl	c28 <rumboot_platform_putchar>
    1674:	e2444001 	sub	r4, r4, #1
    1678:	eafffff9 	b	1664 <rumboot_vprintf+0x450>
    167c:	e28d2030 	add	r2, sp, #48	; 0x30
    1680:	e2889001 	add	r9, r8, #1
    1684:	e0828008 	add	r8, r2, r8
    1688:	e3a0202e 	mov	r2, #46	; 0x2e
    168c:	e5482018 	strb	r2, [r8, #-24]	; 0xffffffe8
    1690:	eaffffba 	b	1580 <rumboot_vprintf+0x36c>
    1694:	e35a0009 	cmp	sl, #9
    1698:	daffffdc 	ble	1610 <rumboot_vprintf+0x3fc>
    169c:	e3a0100a 	mov	r1, #10
    16a0:	e1a0000a 	mov	r0, sl
    16a4:	e58d3010 	str	r3, [sp, #16]
    16a8:	ebfffb05 	bl	2c4 <__divsi3>
    16ac:	e59d2014 	ldr	r2, [sp, #20]
    16b0:	e1a09008 	mov	r9, r8
    16b4:	e7db1000 	ldrb	r1, [fp, r0]
    16b8:	e1a0000a 	mov	r0, sl
    16bc:	e5421018 	strb	r1, [r2, #-24]	; 0xffffffe8
    16c0:	e3a0100a 	mov	r1, #10
    16c4:	ebfffb35 	bl	3a0 <__aeabi_idivmod>
    16c8:	e1a0a001 	mov	sl, r1
    16cc:	eaffffce 	b	160c <rumboot_vprintf+0x3f8>
    16d0:	e3a00020 	mov	r0, #32
    16d4:	ebfffd53 	bl	c28 <rumboot_platform_putchar>
    16d8:	eaffffd6 	b	1638 <rumboot_vprintf+0x424>
    16dc:	e3a01008 	mov	r1, #8
    16e0:	eaffff5b 	b	1454 <rumboot_vprintf+0x240>
    16e4:	000047d2 	ldrdeq	r4, [r0], -r2
    16e8:	0000481c 	andeq	r4, r0, ip, lsl r8

Disassembly of section .text.rumboot_printf:

000016ec <rumboot_printf>:
    16ec:	e92d000f 	push	{r0, r1, r2, r3}
    16f0:	e92d4007 	push	{r0, r1, r2, lr}
    16f4:	e28d1014 	add	r1, sp, #20
    16f8:	e59d0010 	ldr	r0, [sp, #16]
    16fc:	e58d1004 	str	r1, [sp, #4]
    1700:	ebfffec3 	bl	1214 <rumboot_vprintf>
    1704:	e28dd00c 	add	sp, sp, #12
    1708:	e49de004 	pop	{lr}		; (ldr lr, [sp], #4)
    170c:	e28dd010 	add	sp, sp, #16
    1710:	e12fff1e 	bx	lr

Disassembly of section .text.test_suite_run_single:

00001714 <test_suite_run_single>:
    1714:	e92d41f0 	push	{r4, r5, r6, r7, r8, lr}
    1718:	e1a05001 	mov	r5, r1
    171c:	e1a06000 	mov	r6, r0
    1720:	e1a01002 	mov	r1, r2
    1724:	e59f00b0 	ldr	r0, [pc, #176]	; 17dc <test_suite_run_single+0xc8>
    1728:	e5952000 	ldr	r2, [r5]
    172c:	ebffffee 	bl	16ec <rumboot_printf>
    1730:	e5953010 	ldr	r3, [r5, #16]
    1734:	e3530000 	cmp	r3, #0
    1738:	0a000007 	beq	175c <test_suite_run_single+0x48>
    173c:	e595000c 	ldr	r0, [r5, #12]
    1740:	e12fff33 	blx	r3
    1744:	e3500000 	cmp	r0, #0
    1748:	0a000003 	beq	175c <test_suite_run_single+0x48>
    174c:	e59f008c 	ldr	r0, [pc, #140]	; 17e0 <test_suite_run_single+0xcc>
    1750:	ebffffe5 	bl	16ec <rumboot_printf>
    1754:	e3a00001 	mov	r0, #1
    1758:	e8bd81f0 	pop	{r4, r5, r6, r7, r8, pc}
    175c:	ebfffc8f 	bl	9a0 <rumboot_platform_get_uptime>
    1760:	e1a08000 	mov	r8, r0
    1764:	e3a00001 	mov	r0, #1
    1768:	eb00072c 	bl	3420 <rumboot_malloc_update_heaps>
    176c:	e5953008 	ldr	r3, [r5, #8]
    1770:	e595000c 	ldr	r0, [r5, #12]
    1774:	e12fff33 	blx	r3
    1778:	e1a04000 	mov	r4, r0
    177c:	e3a00000 	mov	r0, #0
    1780:	eb000726 	bl	3420 <rumboot_malloc_update_heaps>
    1784:	e59f3058 	ldr	r3, [pc, #88]	; 17e4 <test_suite_run_single+0xd0>
    1788:	e3540000 	cmp	r4, #0
    178c:	e59f1054 	ldr	r1, [pc, #84]	; 17e8 <test_suite_run_single+0xd4>
    1790:	e59f0054 	ldr	r0, [pc, #84]	; 17ec <test_suite_run_single+0xd8>
    1794:	01a01003 	moveq	r1, r3
    1798:	ebffffd3 	bl	16ec <rumboot_printf>
    179c:	e3560000 	cmp	r6, #0
    17a0:	0a00000b 	beq	17d4 <test_suite_run_single+0xc0>
    17a4:	e5967004 	ldr	r7, [r6, #4]
    17a8:	e3a0300c 	mov	r3, #12
    17ac:	e0276793 	mla	r7, r3, r7, r6
    17b0:	e5953000 	ldr	r3, [r5]
    17b4:	e587400c 	str	r4, [r7, #12]
    17b8:	e5873008 	str	r3, [r7, #8]
    17bc:	ebfffc77 	bl	9a0 <rumboot_platform_get_uptime>
    17c0:	e0400008 	sub	r0, r0, r8
    17c4:	e5870010 	str	r0, [r7, #16]
    17c8:	e5963004 	ldr	r3, [r6, #4]
    17cc:	e2833001 	add	r3, r3, #1
    17d0:	e5863004 	str	r3, [r6, #4]
    17d4:	e1a00004 	mov	r0, r4
    17d8:	e8bd81f0 	pop	{r4, r5, r6, r7, r8, pc}
    17dc:	00004831 	andeq	r4, r0, r1, lsr r8
    17e0:	00004853 	andeq	r4, r0, r3, asr r8
    17e4:	0000482a 	andeq	r4, r0, sl, lsr #16
    17e8:	00004823 	andeq	r4, r0, r3, lsr #16
    17ec:	00004864 	andeq	r4, r0, r4, ror #16

Disassembly of section .text.test_suite_run:

000017f0 <test_suite_run>:
    17f0:	e92d41f0 	push	{r4, r5, r6, r7, r8, lr}
    17f4:	e3a04000 	mov	r4, #0
    17f8:	e1a08000 	mov	r8, r0
    17fc:	e1a07001 	mov	r7, r1
    1800:	e2815008 	add	r5, r1, #8
    1804:	e1a06004 	mov	r6, r4
    1808:	e5953000 	ldr	r3, [r5]
    180c:	e3530000 	cmp	r3, #0
    1810:	1a000001 	bne	181c <test_suite_run+0x2c>
    1814:	e0460004 	sub	r0, r6, r4
    1818:	e8bd81f0 	pop	{r4, r5, r6, r7, r8, pc}
    181c:	e1a01005 	mov	r1, r5
    1820:	e897000c 	ldm	r7, {r2, r3}
    1824:	e1a00008 	mov	r0, r8
    1828:	ebffffb9 	bl	1714 <test_suite_run_single>
    182c:	e2866001 	add	r6, r6, #1
    1830:	e2855014 	add	r5, r5, #20
    1834:	e0844000 	add	r4, r4, r0
    1838:	eafffff2 	b	1808 <test_suite_run+0x18>

Disassembly of section .text.process_irq:

0000183c <process_irq>:
    183c:	e59f2060 	ldr	r2, [pc, #96]	; 18a4 <process_irq+0x68>
    1840:	e92d4010 	push	{r4, lr}
    1844:	e1a01000 	mov	r1, r0
    1848:	e5923130 	ldr	r3, [r2, #304]	; 0x130
    184c:	e3530000 	cmp	r3, #0
    1850:	0a000009 	beq	187c <process_irq+0x40>
    1854:	e3a0c00c 	mov	ip, #12
    1858:	e00c009c 	mul	ip, ip, r0
    185c:	e793e00c 	ldr	lr, [r3, ip]
    1860:	e083400c 	add	r4, r3, ip
    1864:	e35e0000 	cmp	lr, #0
    1868:	0a000003 	beq	187c <process_irq+0x40>
    186c:	e5941004 	ldr	r1, [r4, #4]
    1870:	e1a0300e 	mov	r3, lr
    1874:	e8bd4010 	pop	{r4, lr}
    1878:	e12fff13 	bx	r3
    187c:	e5922134 	ldr	r2, [r2, #308]	; 0x134
    1880:	e3520000 	cmp	r2, #0
    1884:	0a000002 	beq	1894 <process_irq+0x58>
    1888:	e1a00001 	mov	r0, r1
    188c:	e8bd4010 	pop	{r4, lr}
    1890:	e12fff12 	bx	r2
    1894:	e3530000 	cmp	r3, #0
    1898:	059f0008 	ldreq	r0, [pc, #8]	; 18a8 <process_irq+0x6c>
    189c:	159f0008 	ldrne	r0, [pc, #8]	; 18ac <process_irq+0x70>
    18a0:	eb0007a7 	bl	3744 <rumboot_platform_panic>
    18a4:	0007f000 	andeq	pc, r7, r0
    18a8:	000048b8 			; <UNDEFINED> instruction: 0x000048b8
    18ac:	000048f2 	strdeq	r4, [r0], -r2

Disassembly of section .text.rumboot_irq_register_controller:

000018b0 <rumboot_irq_register_controller>:
    18b0:	e59f202c 	ldr	r2, [pc, #44]	; 18e4 <rumboot_irq_register_controller+0x34>
    18b4:	e592311c 	ldr	r3, [r2, #284]	; 0x11c
    18b8:	e3530003 	cmp	r3, #3
    18bc:	da000002 	ble	18cc <rumboot_irq_register_controller+0x1c>
    18c0:	e92d4010 	push	{r4, lr}
    18c4:	e59f001c 	ldr	r0, [pc, #28]	; 18e8 <rumboot_irq_register_controller+0x38>
    18c8:	eb00079d 	bl	3744 <rumboot_platform_panic>
    18cc:	e283c001 	add	ip, r3, #1
    18d0:	e2833048 	add	r3, r3, #72	; 0x48
    18d4:	e582c11c 	str	ip, [r2, #284]	; 0x11c
    18d8:	e7820103 	str	r0, [r2, r3, lsl #2]
    18dc:	e5903008 	ldr	r3, [r0, #8]
    18e0:	e12fff13 	bx	r3
    18e4:	0007f000 	andeq	pc, r7, r0
    18e8:	0000491b 	andeq	r4, r0, fp, lsl r9

Disassembly of section .text.rumboot_irq_core_dispatch:

000018ec <rumboot_irq_core_dispatch>:
    18ec:	e3500004 	cmp	r0, #4
    18f0:	e92d4070 	push	{r4, r5, r6, lr}
    18f4:	92800048 	addls	r0, r0, #72	; 0x48
    18f8:	959f3078 	ldrls	r3, [pc, #120]	; 1978 <rumboot_irq_core_dispatch+0x8c>
    18fc:	83a04000 	movhi	r4, #0
    1900:	97934100 	ldrls	r4, [r3, r0, lsl #2]
    1904:	e3510001 	cmp	r1, #1
    1908:	0a000010 	beq	1950 <rumboot_irq_core_dispatch+0x64>
    190c:	3a000002 	bcc	191c <rumboot_irq_core_dispatch+0x30>
    1910:	e3510002 	cmp	r1, #2
    1914:	0a00000a 	beq	1944 <rumboot_irq_core_dispatch+0x58>
    1918:	e8bd8070 	pop	{r4, r5, r6, pc}
    191c:	e5943010 	ldr	r3, [r4, #16]
    1920:	e1a00004 	mov	r0, r4
    1924:	e12fff33 	blx	r3
    1928:	e1a05000 	mov	r5, r0
    192c:	ebffffc2 	bl	183c <process_irq>
    1930:	e5943014 	ldr	r3, [r4, #20]
    1934:	e1a01005 	mov	r1, r5
    1938:	e1a00004 	mov	r0, r4
    193c:	e8bd4070 	pop	{r4, r5, r6, lr}
    1940:	e12fff13 	bx	r3
    1944:	e1a00002 	mov	r0, r2
    1948:	e8bd4070 	pop	{r4, r5, r6, lr}
    194c:	eaffffba 	b	183c <process_irq>
    1950:	e59f3020 	ldr	r3, [pc, #32]	; 1978 <rumboot_irq_core_dispatch+0x8c>
    1954:	e593e138 	ldr	lr, [r3, #312]	; 0x138
    1958:	e59f301c 	ldr	r3, [pc, #28]	; 197c <rumboot_irq_core_dispatch+0x90>
    195c:	e35e0000 	cmp	lr, #0
    1960:	e7931102 	ldr	r1, [r3, r2, lsl #2]
    1964:	11a00002 	movne	r0, r2
    1968:	11a0300e 	movne	r3, lr
    196c:	1afffff2 	bne	193c <rumboot_irq_core_dispatch+0x50>
    1970:	e59f0008 	ldr	r0, [pc, #8]	; 1980 <rumboot_irq_core_dispatch+0x94>
    1974:	eb000772 	bl	3744 <rumboot_platform_panic>
    1978:	0007f000 	andeq	pc, r7, r0
    197c:	00004870 	andeq	r4, r0, r0, ror r8
    1980:	0000490b 	andeq	r4, r0, fp, lsl #18

Disassembly of section .text.isprintable:

00001984 <isprintable>:
    1984:	e3c03020 	bic	r3, r0, #32
    1988:	e2433041 	sub	r3, r3, #65	; 0x41
    198c:	e3530019 	cmp	r3, #25
    1990:	9a000004 	bls	19a8 <isprintable+0x24>
    1994:	e2400021 	sub	r0, r0, #33	; 0x21
    1998:	e350001e 	cmp	r0, #30
    199c:	83a00000 	movhi	r0, #0
    19a0:	93a00001 	movls	r0, #1
    19a4:	e12fff1e 	bx	lr
    19a8:	e3a00001 	mov	r0, #1
    19ac:	e12fff1e 	bx	lr

Disassembly of section .text.wait:

000019b0 <wait>:
    19b0:	e92d47f0 	push	{r4, r5, r6, r7, r8, r9, sl, lr}
    19b4:	e1a04000 	mov	r4, r0
    19b8:	e1a08001 	mov	r8, r1
    19bc:	ebfffbf7 	bl	9a0 <rumboot_platform_get_uptime>
    19c0:	e3a06000 	mov	r6, #0
    19c4:	e3a09010 	mov	r9, #16
    19c8:	e1a05000 	mov	r5, r0
    19cc:	e3a0a004 	mov	sl, #4
    19d0:	e59f7090 	ldr	r7, [pc, #144]	; 1a68 <wait+0xb8>
    19d4:	e5943308 	ldr	r3, [r4, #776]	; 0x308
    19d8:	e3130040 	tst	r3, #64	; 0x40
    19dc:	e1866003 	orr	r6, r6, r3
    19e0:	15849048 	strne	r9, [r4, #72]	; 0x48
    19e4:	e3130020 	tst	r3, #32
    19e8:	1584a048 	strne	sl, [r4, #72]	; 0x48
    19ec:	e3130001 	tst	r3, #1
    19f0:	13a02702 	movne	r2, #524288	; 0x80000
    19f4:	15842028 	strne	r2, [r4, #40]	; 0x28
    19f8:	e3130002 	tst	r3, #2
    19fc:	13a02702 	movne	r2, #524288	; 0x80000
    1a00:	15842038 	strne	r2, [r4, #56]	; 0x38
    1a04:	e3130004 	tst	r3, #4
    1a08:	13a02001 	movne	r2, #1
    1a0c:	15842048 	strne	r2, [r4, #72]	; 0x48
    1a10:	e3130010 	tst	r3, #16
    1a14:	13a02002 	movne	r2, #2
    1a18:	15842048 	strne	r2, [r4, #72]	; 0x48
    1a1c:	e3160040 	tst	r6, #64	; 0x40
    1a20:	0a000007 	beq	1a44 <wait+0x94>
    1a24:	e3a04000 	mov	r4, #0
    1a28:	ebfffbdc 	bl	9a0 <rumboot_platform_get_uptime>
    1a2c:	e59f3038 	ldr	r3, [pc, #56]	; 1a6c <wait+0xbc>
    1a30:	e0400005 	sub	r0, r0, r5
    1a34:	e1500003 	cmp	r0, r3
    1a38:	91a00004 	movls	r0, r4
    1a3c:	83a00000 	movhi	r0, #0
    1a40:	e8bd87f0 	pop	{r4, r5, r6, r7, r8, r9, sl, pc}
    1a44:	e1d83006 	bics	r3, r8, r6
    1a48:	0a000004 	beq	1a60 <wait+0xb0>
    1a4c:	ebfffbd3 	bl	9a0 <rumboot_platform_get_uptime>
    1a50:	e0400005 	sub	r0, r0, r5
    1a54:	e1500007 	cmp	r0, r7
    1a58:	9affffdd 	bls	19d4 <wait+0x24>
    1a5c:	eafffff0 	b	1a24 <wait+0x74>
    1a60:	e3a04001 	mov	r4, #1
    1a64:	eaffffef 	b	1a28 <wait+0x78>
    1a68:	04c4b3ff 	strbeq	fp, [r4], #1023	; 0x3ff
    1a6c:	04c4b400 	strbeq	fp, [r4], #1024	; 0x400

Disassembly of section .text.sdio_request_execute:

00001a70 <sdio_request_execute>:
    1a70:	e5d1301c 	ldrb	r3, [r1, #28]
    1a74:	e92d4070 	push	{r4, r5, r6, lr}
    1a78:	e1a05000 	mov	r5, r0
    1a7c:	e3530000 	cmp	r3, #0
    1a80:	e24dd028 	sub	sp, sp, #40	; 0x28
    1a84:	e1a04001 	mov	r4, r1
    1a88:	1a00002a 	bne	1b38 <sdio_request_execute+0xc8>
    1a8c:	e594300c 	ldr	r3, [r4, #12]
    1a90:	e5942000 	ldr	r2, [r4]
    1a94:	e1a03603 	lsl	r3, r3, #12
    1a98:	e1833802 	orr	r3, r3, r2, lsl #16
    1a9c:	e5942008 	ldr	r2, [r4, #8]
    1aa0:	e1833682 	orr	r3, r3, r2, lsl #13
    1aa4:	e5942004 	ldr	r2, [r4, #4]
    1aa8:	e1833502 	orr	r3, r3, r2, lsl #10
    1aac:	e5942024 	ldr	r2, [r4, #36]	; 0x24
    1ab0:	e3520004 	cmp	r2, #4
    1ab4:	03833001 	orreq	r3, r3, #1
    1ab8:	e5942018 	ldr	r2, [r4, #24]
    1abc:	e3520000 	cmp	r2, #0
    1ac0:	1a00002f 	bne	1b84 <sdio_request_execute+0x114>
    1ac4:	e3833010 	orr	r3, r3, #16
    1ac8:	e5942010 	ldr	r2, [r4, #16]
    1acc:	e3a01020 	mov	r1, #32
    1ad0:	e5852008 	str	r2, [r5, #8]
    1ad4:	e1a00005 	mov	r0, r5
    1ad8:	e5853004 	str	r3, [r5, #4]
    1adc:	ebffffb3 	bl	19b0 <wait>
    1ae0:	e5943018 	ldr	r3, [r4, #24]
    1ae4:	e3530000 	cmp	r3, #0
    1ae8:	0a000023 	beq	1b7c <sdio_request_execute+0x10c>
    1aec:	e3500000 	cmp	r0, #0
    1af0:	0a000020 	beq	1b78 <sdio_request_execute+0x108>
    1af4:	e3a01010 	mov	r1, #16
    1af8:	e1a00005 	mov	r0, r5
    1afc:	ebffffab 	bl	19b0 <wait>
    1b00:	e5943020 	ldr	r3, [r4, #32]
    1b04:	e5940018 	ldr	r0, [r4, #24]
    1b08:	e3833004 	orr	r3, r3, #4
    1b0c:	e5853050 	str	r3, [r5, #80]	; 0x50
    1b10:	e3a03c02 	mov	r3, #512	; 0x200
    1b14:	e5853044 	str	r3, [r5, #68]	; 0x44
    1b18:	ebfffb9f 	bl	99c <rumboot_virt_to_dma>
    1b1c:	e59f3094 	ldr	r3, [pc, #148]	; 1bb8 <sdio_request_execute+0x148>
    1b20:	e3a01006 	mov	r1, #6
    1b24:	e5850040 	str	r0, [r5, #64]	; 0x40
    1b28:	e5853038 	str	r3, [r5, #56]	; 0x38
    1b2c:	e1a00005 	mov	r0, r5
    1b30:	ebffff9e 	bl	19b0 <wait>
    1b34:	ea000010 	b	1b7c <sdio_request_execute+0x10c>
    1b38:	e5916014 	ldr	r6, [r1, #20]
    1b3c:	e3a02028 	mov	r2, #40	; 0x28
    1b40:	e3a01000 	mov	r1, #0
    1b44:	e1a0000d 	mov	r0, sp
    1b48:	eb00079c 	bl	39c0 <memset>
    1b4c:	e3a03037 	mov	r3, #55	; 0x37
    1b50:	e1a0100d 	mov	r1, sp
    1b54:	e58d3000 	str	r3, [sp]
    1b58:	e3a03001 	mov	r3, #1
    1b5c:	e1a00005 	mov	r0, r5
    1b60:	e58d3008 	str	r3, [sp, #8]
    1b64:	e58d300c 	str	r3, [sp, #12]
    1b68:	e58d6010 	str	r6, [sp, #16]
    1b6c:	ebffffbf 	bl	1a70 <sdio_request_execute>
    1b70:	e3500000 	cmp	r0, #0
    1b74:	1affffc4 	bne	1a8c <sdio_request_execute+0x1c>
    1b78:	e3a00000 	mov	r0, #0
    1b7c:	e28dd028 	add	sp, sp, #40	; 0x28
    1b80:	e8bd8070 	pop	{r4, r5, r6, pc}
    1b84:	e5942020 	ldr	r2, [r4, #32]
    1b88:	e3833901 	orr	r3, r3, #16384	; 0x4000
    1b8c:	e1a02102 	lsl	r2, r2, #2
    1b90:	e3833010 	orr	r3, r3, #16
    1b94:	e585200c 	str	r2, [r5, #12]
    1b98:	e3002101 	movw	r2, #257	; 0x101
    1b9c:	e5852000 	str	r2, [r5]
    1ba0:	e5d4201d 	ldrb	r2, [r4, #29]
    1ba4:	e3520000 	cmp	r2, #0
    1ba8:	13a02c01 	movne	r2, #256	; 0x100
    1bac:	03a02000 	moveq	r2, #0
    1bb0:	e1833002 	orr	r3, r3, r2
    1bb4:	eaffffc3 	b	1ac8 <sdio_request_execute+0x58>
    1bb8:	00020f01 	andeq	r0, r2, r1, lsl #30

Disassembly of section .text.sdio_deinit:

00001bbc <sdio_deinit>:
    1bbc:	e92d4010 	push	{r4, lr}
    1bc0:	e1a04000 	mov	r4, r0
    1bc4:	e24dd028 	sub	sp, sp, #40	; 0x28
    1bc8:	e3a02028 	mov	r2, #40	; 0x28
    1bcc:	e3a01000 	mov	r1, #0
    1bd0:	e1a0000d 	mov	r0, sp
    1bd4:	eb000779 	bl	39c0 <memset>
    1bd8:	e1a0100d 	mov	r1, sp
    1bdc:	e5940004 	ldr	r0, [r4, #4]
    1be0:	ebffffa2 	bl	1a70 <sdio_request_execute>
    1be4:	e5942004 	ldr	r2, [r4, #4]
    1be8:	e5923300 	ldr	r3, [r2, #768]	; 0x300
    1bec:	e3c33002 	bic	r3, r3, #2
    1bf0:	e5823300 	str	r3, [r2, #768]	; 0x300
    1bf4:	e28dd028 	add	sp, sp, #40	; 0x28
    1bf8:	e8bd8010 	pop	{r4, pc}

Disassembly of section .text.card_reset:

00001bfc <card_reset>:
    1bfc:	e92d4010 	push	{r4, lr}
    1c00:	e24dd028 	sub	sp, sp, #40	; 0x28
    1c04:	e1a04000 	mov	r4, r0
    1c08:	e3a02028 	mov	r2, #40	; 0x28
    1c0c:	e3a01000 	mov	r1, #0
    1c10:	e1a0000d 	mov	r0, sp
    1c14:	eb000769 	bl	39c0 <memset>
    1c18:	e1a0100d 	mov	r1, sp
    1c1c:	e1a00004 	mov	r0, r4
    1c20:	ebffff92 	bl	1a70 <sdio_request_execute>
    1c24:	e1a0100d 	mov	r1, sp
    1c28:	e1a00004 	mov	r0, r4
    1c2c:	ebffff8f 	bl	1a70 <sdio_request_execute>
    1c30:	e28dd028 	add	sp, sp, #40	; 0x28
    1c34:	e8bd8010 	pop	{r4, pc}

Disassembly of section .text.sdio_read:

00001c38 <sdio_read>:
    1c38:	e92d4ff0 	push	{r4, r5, r6, r7, r8, r9, sl, fp, lr}
    1c3c:	e24dd034 	sub	sp, sp, #52	; 0x34
    1c40:	e1a0a003 	mov	sl, r3
    1c44:	e1a07000 	mov	r7, r0
    1c48:	e1a08001 	mov	r8, r1
    1c4c:	e1a09002 	mov	r9, r2
    1c50:	e59d5058 	ldr	r5, [sp, #88]	; 0x58
    1c54:	e3a04000 	mov	r4, #0
    1c58:	e3a0b011 	mov	fp, #17
    1c5c:	e3a03002 	mov	r3, #2
    1c60:	e3a06001 	mov	r6, #1
    1c64:	e3550000 	cmp	r5, #0
    1c68:	e084100a 	add	r1, r4, sl
    1c6c:	e089c004 	add	ip, r9, r4
    1c70:	0a00001c 	beq	1ce8 <sdio_read+0xb0>
    1c74:	e7e82051 	ubfx	r2, r1, #0, #9
    1c78:	e3520000 	cmp	r2, #0
    1c7c:	1a000019 	bne	1ce8 <sdio_read+0xb0>
    1c80:	e5d80004 	ldrb	r0, [r8, #4]
    1c84:	e3a02000 	mov	r2, #0
    1c88:	e3500004 	cmp	r0, #4
    1c8c:	01a014a1 	lsreq	r1, r1, #9
    1c90:	e3500002 	cmp	r0, #2
    1c94:	e58d1018 	str	r1, [sp, #24]
    1c98:	03a01001 	moveq	r1, #1
    1c9c:	13a01004 	movne	r1, #4
    1ca0:	e5970004 	ldr	r0, [r7, #4]
    1ca4:	e58d102c 	str	r1, [sp, #44]	; 0x2c
    1ca8:	e28d1008 	add	r1, sp, #8
    1cac:	e58d300c 	str	r3, [sp, #12]
    1cb0:	e58d3004 	str	r3, [sp, #4]
    1cb4:	e58d201c 	str	r2, [sp, #28]
    1cb8:	e5cd2024 	strb	r2, [sp, #36]	; 0x24
    1cbc:	e58d2028 	str	r2, [sp, #40]	; 0x28
    1cc0:	e58d2000 	str	r2, [sp]
    1cc4:	e58db008 	str	fp, [sp, #8]
    1cc8:	e58d6010 	str	r6, [sp, #16]
    1ccc:	e58d6014 	str	r6, [sp, #20]
    1cd0:	e58dc020 	str	ip, [sp, #32]
    1cd4:	e5cd6025 	strb	r6, [sp, #37]	; 0x25
    1cd8:	ebffff64 	bl	1a70 <sdio_request_execute>
    1cdc:	e89d000c 	ldm	sp, {r2, r3}
    1ce0:	e3500000 	cmp	r0, #0
    1ce4:	1a000002 	bne	1cf4 <sdio_read+0xbc>
    1ce8:	e1a00004 	mov	r0, r4
    1cec:	e28dd034 	add	sp, sp, #52	; 0x34
    1cf0:	e8bd8ff0 	pop	{r4, r5, r6, r7, r8, r9, sl, fp, pc}
    1cf4:	e3550c02 	cmp	r5, #512	; 0x200
    1cf8:	31a05002 	movcc	r5, r2
    1cfc:	22455c02 	subcs	r5, r5, #512	; 0x200
    1d00:	e2844c02 	add	r4, r4, #512	; 0x200
    1d04:	eaffffd6 	b	1c64 <sdio_read+0x2c>

Disassembly of section .text.sdio_init:

00001d08 <sdio_init>:
    1d08:	e92d4ff0 	push	{r4, r5, r6, r7, r8, r9, sl, fp, lr}
    1d0c:	e5903010 	ldr	r3, [r0, #16]
    1d10:	e3a06ffa 	mov	r6, #1000	; 0x3e8
    1d14:	e5907004 	ldr	r7, [r0, #4]
    1d18:	e0060396 	mul	r6, r6, r3
    1d1c:	e59f363c 	ldr	r3, [pc, #1596]	; 2360 <sdio_init+0x658>
    1d20:	e1a02426 	lsr	r2, r6, #8
    1d24:	e24dd054 	sub	sp, sp, #84	; 0x54
    1d28:	e0832392 	umull	r2, r3, r2, r3
    1d2c:	e1a05000 	mov	r5, r0
    1d30:	e1a03223 	lsr	r3, r3, #4
    1d34:	e2433001 	sub	r3, r3, #1
    1d38:	e3a02080 	mov	r2, #128	; 0x80
    1d3c:	e5873304 	str	r3, [r7, #772]	; 0x304
    1d40:	e3a03001 	mov	r3, #1
    1d44:	e1a04001 	mov	r4, r1
    1d48:	e5873300 	str	r3, [r7, #768]	; 0x300
    1d4c:	e2873004 	add	r3, r7, #4
    1d50:	e5872004 	str	r2, [r7, #4]
    1d54:	e5938000 	ldr	r8, [r3]
    1d58:	e2188080 	ands	r8, r8, #128	; 0x80
    1d5c:	1afffffc 	bne	1d54 <sdio_init+0x4c>
    1d60:	e3a0307f 	mov	r3, #127	; 0x7f
    1d64:	e3a02028 	mov	r2, #40	; 0x28
    1d68:	e587330c 	str	r3, [r7, #780]	; 0x30c
    1d6c:	e300316f 	movw	r3, #367	; 0x16f
    1d70:	e58780d8 	str	r8, [r7, #216]	; 0xd8
    1d74:	e1a01008 	mov	r1, r8
    1d78:	e5873014 	str	r3, [r7, #20]
    1d7c:	e1a0000d 	mov	r0, sp
    1d80:	eb00070e 	bl	39c0 <memset>
    1d84:	e1a00007 	mov	r0, r7
    1d88:	ebffff9b 	bl	1bfc <card_reset>
    1d8c:	e3500000 	cmp	r0, #0
    1d90:	1a000003 	bne	1da4 <sdio_init+0x9c>
    1d94:	e3a09000 	mov	r9, #0
    1d98:	e1a00009 	mov	r0, r9
    1d9c:	e28dd054 	add	sp, sp, #84	; 0x54
    1da0:	e8bd8ff0 	pop	{r4, r5, r6, r7, r8, r9, sl, fp, pc}
    1da4:	e3a03008 	mov	r3, #8
    1da8:	e30071aa 	movw	r7, #426	; 0x1aa
    1dac:	e58d3000 	str	r3, [sp]
    1db0:	e3a03002 	mov	r3, #2
    1db4:	e1a0100d 	mov	r1, sp
    1db8:	e58d3004 	str	r3, [sp, #4]
    1dbc:	e3a03001 	mov	r3, #1
    1dc0:	e5950004 	ldr	r0, [r5, #4]
    1dc4:	e58d7010 	str	r7, [sp, #16]
    1dc8:	e58d300c 	str	r3, [sp, #12]
    1dcc:	e58d3008 	str	r3, [sp, #8]
    1dd0:	ebffff26 	bl	1a70 <sdio_request_execute>
    1dd4:	e3500000 	cmp	r0, #0
    1dd8:	1a0000be 	bne	20d8 <sdio_init+0x3d0>
    1ddc:	e3a03001 	mov	r3, #1
    1de0:	e5c43004 	strb	r3, [r4, #4]
    1de4:	e3a02028 	mov	r2, #40	; 0x28
    1de8:	e3a01000 	mov	r1, #0
    1dec:	e08d0002 	add	r0, sp, r2
    1df0:	eb0006f2 	bl	39c0 <memset>
    1df4:	e3a03029 	mov	r3, #41	; 0x29
    1df8:	e3a08004 	mov	r8, #4
    1dfc:	e58d3028 	str	r3, [sp, #40]	; 0x28
    1e00:	e3a03002 	mov	r3, #2
    1e04:	e59f9558 	ldr	r9, [pc, #1368]	; 2364 <sdio_init+0x65c>
    1e08:	e58d302c 	str	r3, [sp, #44]	; 0x2c
    1e0c:	e3a03001 	mov	r3, #1
    1e10:	e5cd3044 	strb	r3, [sp, #68]	; 0x44
    1e14:	e58d3030 	str	r3, [sp, #48]	; 0x30
    1e18:	e58d3034 	str	r3, [sp, #52]	; 0x34
    1e1c:	e59f3544 	ldr	r3, [pc, #1348]	; 2368 <sdio_init+0x660>
    1e20:	e58d3038 	str	r3, [sp, #56]	; 0x38
    1e24:	e5d43004 	ldrb	r3, [r4, #4]
    1e28:	e3530001 	cmp	r3, #1
    1e2c:	159f3538 	ldrne	r3, [pc, #1336]	; 236c <sdio_init+0x664>
    1e30:	158d3038 	strne	r3, [sp, #56]	; 0x38
    1e34:	e28d1028 	add	r1, sp, #40	; 0x28
    1e38:	e5950004 	ldr	r0, [r5, #4]
    1e3c:	ebffff0b 	bl	1a70 <sdio_request_execute>
    1e40:	e2507000 	subs	r7, r0, #0
    1e44:	1a0000a9 	bne	20f0 <sdio_init+0x3e8>
    1e48:	e2588001 	subs	r8, r8, #1
    1e4c:	1afffff8 	bne	1e34 <sdio_init+0x12c>
    1e50:	e1a07008 	mov	r7, r8
    1e54:	e5942018 	ldr	r2, [r4, #24]
    1e58:	e3520000 	cmp	r2, #0
    1e5c:	ba000002 	blt	1e6c <sdio_init+0x164>
    1e60:	e5951000 	ldr	r1, [r5]
    1e64:	e59f0504 	ldr	r0, [pc, #1284]	; 2370 <sdio_init+0x668>
    1e68:	ebfffe1f 	bl	16ec <rumboot_printf>
    1e6c:	e5d43004 	ldrb	r3, [r4, #4]
    1e70:	e3530001 	cmp	r3, #1
    1e74:	0a000004 	beq	1e8c <sdio_init+0x184>
    1e78:	e5943018 	ldr	r3, [r4, #24]
    1e7c:	e3130101 	tst	r3, #1073741824	; 0x40000000
    1e80:	13a03004 	movne	r3, #4
    1e84:	03a03003 	moveq	r3, #3
    1e88:	e5c43004 	strb	r3, [r4, #4]
    1e8c:	e3570000 	cmp	r7, #0
    1e90:	0a0000d6 	beq	21f0 <sdio_init+0x4e8>
    1e94:	e3a03002 	mov	r3, #2
    1e98:	e3a02000 	mov	r2, #0
    1e9c:	e58d3000 	str	r3, [sp]
    1ea0:	e3a03001 	mov	r3, #1
    1ea4:	e1a0100d 	mov	r1, sp
    1ea8:	e5950004 	ldr	r0, [r5, #4]
    1eac:	e5cd201c 	strb	r2, [sp, #28]
    1eb0:	e58d3004 	str	r3, [sp, #4]
    1eb4:	e58d300c 	str	r3, [sp, #12]
    1eb8:	e58d3008 	str	r3, [sp, #8]
    1ebc:	e58d2010 	str	r2, [sp, #16]
    1ec0:	ebfffeea 	bl	1a70 <sdio_request_execute>
    1ec4:	e2509000 	subs	r9, r0, #0
    1ec8:	05951000 	ldreq	r1, [r5]
    1ecc:	059f04a0 	ldreq	r0, [pc, #1184]	; 2374 <sdio_init+0x66c>
    1ed0:	0a000105 	beq	22ec <sdio_init+0x5e4>
    1ed4:	e5953004 	ldr	r3, [r5, #4]
    1ed8:	e2847005 	add	r7, r4, #5
    1edc:	e593c018 	ldr	ip, [r3, #24]
    1ee0:	e5930018 	ldr	r0, [r3, #24]
    1ee4:	e5931018 	ldr	r1, [r3, #24]
    1ee8:	e5932018 	ldr	r2, [r3, #24]
    1eec:	e1a00400 	lsl	r0, r0, #8
    1ef0:	e1a02c22 	lsr	r2, r2, #24
    1ef4:	e1822c0c 	orr	r2, r2, ip, lsl #24
    1ef8:	e20008ff 	and	r0, r0, #16711680	; 0xff0000
    1efc:	e1a01421 	lsr	r1, r1, #8
    1f00:	e1822000 	orr	r2, r2, r0
    1f04:	e2011cff 	and	r1, r1, #65280	; 0xff00
    1f08:	e1822001 	orr	r2, r2, r1
    1f0c:	e2849024 	add	r9, r4, #36	; 0x24
    1f10:	e5842028 	str	r2, [r4, #40]	; 0x28
    1f14:	e593c01c 	ldr	ip, [r3, #28]
    1f18:	e593001c 	ldr	r0, [r3, #28]
    1f1c:	e593101c 	ldr	r1, [r3, #28]
    1f20:	e593201c 	ldr	r2, [r3, #28]
    1f24:	e1a00400 	lsl	r0, r0, #8
    1f28:	e1a02c22 	lsr	r2, r2, #24
    1f2c:	e1822c0c 	orr	r2, r2, ip, lsl #24
    1f30:	e20008ff 	and	r0, r0, #16711680	; 0xff0000
    1f34:	e1a01421 	lsr	r1, r1, #8
    1f38:	e1822000 	orr	r2, r2, r0
    1f3c:	e2011cff 	and	r1, r1, #65280	; 0xff00
    1f40:	e1822001 	orr	r2, r2, r1
    1f44:	e5842024 	str	r2, [r4, #36]	; 0x24
    1f48:	e593c020 	ldr	ip, [r3, #32]
    1f4c:	e5930020 	ldr	r0, [r3, #32]
    1f50:	e5931020 	ldr	r1, [r3, #32]
    1f54:	e5932020 	ldr	r2, [r3, #32]
    1f58:	e1a00400 	lsl	r0, r0, #8
    1f5c:	e1a02c22 	lsr	r2, r2, #24
    1f60:	e1822c0c 	orr	r2, r2, ip, lsl #24
    1f64:	e20008ff 	and	r0, r0, #16711680	; 0xff0000
    1f68:	e1a01421 	lsr	r1, r1, #8
    1f6c:	e1822000 	orr	r2, r2, r0
    1f70:	e2011cff 	and	r1, r1, #65280	; 0xff00
    1f74:	e1822001 	orr	r2, r2, r1
    1f78:	e5842020 	str	r2, [r4, #32]
    1f7c:	e593c024 	ldr	ip, [r3, #36]	; 0x24
    1f80:	e5930024 	ldr	r0, [r3, #36]	; 0x24
    1f84:	e5931024 	ldr	r1, [r3, #36]	; 0x24
    1f88:	e5932024 	ldr	r2, [r3, #36]	; 0x24
    1f8c:	e1a03400 	lsl	r3, r0, #8
    1f90:	e1a02c22 	lsr	r2, r2, #24
    1f94:	e1822c0c 	orr	r2, r2, ip, lsl #24
    1f98:	e20338ff 	and	r3, r3, #16711680	; 0xff0000
    1f9c:	e1822003 	orr	r2, r2, r3
    1fa0:	e1a03421 	lsr	r3, r1, #8
    1fa4:	e2033cff 	and	r3, r3, #65280	; 0xff00
    1fa8:	e1822003 	orr	r2, r2, r3
    1fac:	e584201c 	str	r2, [r4, #28]
    1fb0:	e7e72452 	ubfx	r2, r2, #8, #8
    1fb4:	e1a00002 	mov	r0, r2
    1fb8:	ebfffe71 	bl	1984 <isprintable>
    1fbc:	e3500000 	cmp	r0, #0
    1fc0:	12841006 	addne	r1, r4, #6
    1fc4:	15c42005 	strbne	r2, [r4, #5]
    1fc8:	e5d4201e 	ldrb	r2, [r4, #30]
    1fcc:	01a01007 	moveq	r1, r7
    1fd0:	e1a00002 	mov	r0, r2
    1fd4:	ebfffe6a 	bl	1984 <isprintable>
    1fd8:	e3a03020 	mov	r3, #32
    1fdc:	e3500000 	cmp	r0, #0
    1fe0:	15c12000 	strbne	r2, [r1]
    1fe4:	12811001 	addne	r1, r1, #1
    1fe8:	e2812001 	add	r2, r1, #1
    1fec:	e5c13000 	strb	r3, [r1]
    1ff0:	e284101f 	add	r1, r4, #31
    1ff4:	e4d18001 	ldrb	r8, [r1], #1
    1ff8:	e1a00008 	mov	r0, r8
    1ffc:	ebfffe60 	bl	1984 <isprintable>
    2000:	e3500000 	cmp	r0, #0
    2004:	15c28000 	strbne	r8, [r2]
    2008:	12822001 	addne	r2, r2, #1
    200c:	e1590001 	cmp	r9, r1
    2010:	1afffff7 	bne	1ff4 <sdio_init+0x2ec>
    2014:	e3a03000 	mov	r3, #0
    2018:	e59f0358 	ldr	r0, [pc, #856]	; 2378 <sdio_init+0x670>
    201c:	e5c23000 	strb	r3, [r2]
    2020:	e5d42004 	ldrb	r2, [r4, #4]
    2024:	e3a0b000 	mov	fp, #0
    2028:	e3520006 	cmp	r2, #6
    202c:	e59f2348 	ldr	r2, [pc, #840]	; 237c <sdio_init+0x674>
    2030:	85c43004 	strbhi	r3, [r4, #4]
    2034:	e5d41004 	ldrb	r1, [r4, #4]
    2038:	e1a03007 	mov	r3, r7
    203c:	e7922101 	ldr	r2, [r2, r1, lsl #2]
    2040:	e5951000 	ldr	r1, [r5]
    2044:	ebfffda8 	bl	16ec <rumboot_printf>
    2048:	e3a07001 	mov	r7, #1
    204c:	e3a03003 	mov	r3, #3
    2050:	e3a0a002 	mov	sl, #2
    2054:	e1a0100d 	mov	r1, sp
    2058:	e5950004 	ldr	r0, [r5, #4]
    205c:	e58d3000 	str	r3, [sp]
    2060:	e5cdb01c 	strb	fp, [sp, #28]
    2064:	e58da004 	str	sl, [sp, #4]
    2068:	e58d700c 	str	r7, [sp, #12]
    206c:	e58d7008 	str	r7, [sp, #8]
    2070:	e58db010 	str	fp, [sp, #16]
    2074:	ebfffe7d 	bl	1a70 <sdio_request_execute>
    2078:	e2509000 	subs	r9, r0, #0
    207c:	05951000 	ldreq	r1, [r5]
    2080:	059f02f8 	ldreq	r0, [pc, #760]	; 2380 <sdio_init+0x678>
    2084:	0a000098 	beq	22ec <sdio_init+0x5e4>
    2088:	e5950004 	ldr	r0, [r5, #4]
    208c:	e3a03007 	mov	r3, #7
    2090:	e5908018 	ldr	r8, [r0, #24]
    2094:	e1a0100d 	mov	r1, sp
    2098:	e1a08828 	lsr	r8, r8, #16
    209c:	e58d3000 	str	r3, [sp]
    20a0:	e1a08808 	lsl	r8, r8, #16
    20a4:	e5cdb01c 	strb	fp, [sp, #28]
    20a8:	e58da004 	str	sl, [sp, #4]
    20ac:	e58d700c 	str	r7, [sp, #12]
    20b0:	e58d7008 	str	r7, [sp, #8]
    20b4:	e58d8010 	str	r8, [sp, #16]
    20b8:	ebfffe6c 	bl	1a70 <sdio_request_execute>
    20bc:	e2509000 	subs	r9, r0, #0
    20c0:	1a00007a 	bne	22b0 <sdio_init+0x5a8>
    20c4:	e1a02008 	mov	r2, r8
    20c8:	e5951000 	ldr	r1, [r5]
    20cc:	e59f02b0 	ldr	r0, [pc, #688]	; 2384 <sdio_init+0x67c>
    20d0:	ebfffd85 	bl	16ec <rumboot_printf>
    20d4:	eaffff2f 	b	1d98 <sdio_init+0x90>
    20d8:	e5953004 	ldr	r3, [r5, #4]
    20dc:	e5933018 	ldr	r3, [r3, #24]
    20e0:	e1530007 	cmp	r3, r7
    20e4:	1affff3c 	bne	1ddc <sdio_init+0xd4>
    20e8:	e5c48004 	strb	r8, [r4, #4]
    20ec:	eaffff3c 	b	1de4 <sdio_init+0xdc>
    20f0:	e5953004 	ldr	r3, [r5, #4]
    20f4:	e593c018 	ldr	ip, [r3, #24]
    20f8:	e5930018 	ldr	r0, [r3, #24]
    20fc:	e5931018 	ldr	r1, [r3, #24]
    2100:	e5932018 	ldr	r2, [r3, #24]
    2104:	e1a00400 	lsl	r0, r0, #8
    2108:	e1a02c22 	lsr	r2, r2, #24
    210c:	e1822c0c 	orr	r2, r2, ip, lsl #24
    2110:	e20008ff 	and	r0, r0, #16711680	; 0xff0000
    2114:	e1a01421 	lsr	r1, r1, #8
    2118:	e1822000 	orr	r2, r2, r0
    211c:	e2011cff 	and	r1, r1, #65280	; 0xff00
    2120:	e1822001 	orr	r2, r2, r1
    2124:	e5842028 	str	r2, [r4, #40]	; 0x28
    2128:	e593c01c 	ldr	ip, [r3, #28]
    212c:	e593001c 	ldr	r0, [r3, #28]
    2130:	e593101c 	ldr	r1, [r3, #28]
    2134:	e593201c 	ldr	r2, [r3, #28]
    2138:	e1a00400 	lsl	r0, r0, #8
    213c:	e1a02c22 	lsr	r2, r2, #24
    2140:	e1822c0c 	orr	r2, r2, ip, lsl #24
    2144:	e20008ff 	and	r0, r0, #16711680	; 0xff0000
    2148:	e1a01421 	lsr	r1, r1, #8
    214c:	e1822000 	orr	r2, r2, r0
    2150:	e2011cff 	and	r1, r1, #65280	; 0xff00
    2154:	e1822001 	orr	r2, r2, r1
    2158:	e5842024 	str	r2, [r4, #36]	; 0x24
    215c:	e593c020 	ldr	ip, [r3, #32]
    2160:	e5930020 	ldr	r0, [r3, #32]
    2164:	e5931020 	ldr	r1, [r3, #32]
    2168:	e5932020 	ldr	r2, [r3, #32]
    216c:	e1a00400 	lsl	r0, r0, #8
    2170:	e1a02c22 	lsr	r2, r2, #24
    2174:	e1822c0c 	orr	r2, r2, ip, lsl #24
    2178:	e20008ff 	and	r0, r0, #16711680	; 0xff0000
    217c:	e1a01421 	lsr	r1, r1, #8
    2180:	e1822000 	orr	r2, r2, r0
    2184:	e2011cff 	and	r1, r1, #65280	; 0xff00
    2188:	e1822001 	orr	r2, r2, r1
    218c:	e5842020 	str	r2, [r4, #32]
    2190:	e593c024 	ldr	ip, [r3, #36]	; 0x24
    2194:	e5930024 	ldr	r0, [r3, #36]	; 0x24
    2198:	e5931024 	ldr	r1, [r3, #36]	; 0x24
    219c:	e5932024 	ldr	r2, [r3, #36]	; 0x24
    21a0:	e1a00400 	lsl	r0, r0, #8
    21a4:	e1a02c22 	lsr	r2, r2, #24
    21a8:	e1822c0c 	orr	r2, r2, ip, lsl #24
    21ac:	e20008ff 	and	r0, r0, #16711680	; 0xff0000
    21b0:	e1a01421 	lsr	r1, r1, #8
    21b4:	e1822000 	orr	r2, r2, r0
    21b8:	e2011cff 	and	r1, r1, #65280	; 0xff00
    21bc:	e1822001 	orr	r2, r2, r1
    21c0:	e584201c 	str	r2, [r4, #28]
    21c4:	e5933018 	ldr	r3, [r3, #24]
    21c8:	e3530000 	cmp	r3, #0
    21cc:	e5843018 	str	r3, [r4, #24]
    21d0:	baffff1f 	blt	1e54 <sdio_init+0x14c>
    21d4:	ebfff9f1 	bl	9a0 <rumboot_platform_get_uptime>
    21d8:	e1a07000 	mov	r7, r0
    21dc:	ebfff9ef 	bl	9a0 <rumboot_platform_get_uptime>
    21e0:	e0400007 	sub	r0, r0, r7
    21e4:	e1500009 	cmp	r0, r9
    21e8:	9afffffb 	bls	21dc <sdio_init+0x4d4>
    21ec:	eaffff15 	b	1e48 <sdio_init+0x140>
    21f0:	e5950004 	ldr	r0, [r5, #4]
    21f4:	ebfffe80 	bl	1bfc <card_reset>
    21f8:	e3500000 	cmp	r0, #0
    21fc:	0afffee4 	beq	1d94 <sdio_init+0x8c>
    2200:	e3a02028 	mov	r2, #40	; 0x28
    2204:	e08d0002 	add	r0, sp, r2
    2208:	e1a01007 	mov	r1, r7
    220c:	eb0005eb 	bl	39c0 <memset>
    2210:	e3a03001 	mov	r3, #1
    2214:	e3a02002 	mov	r2, #2
    2218:	e58d3028 	str	r3, [sp, #40]	; 0x28
    221c:	e58d3034 	str	r3, [sp, #52]	; 0x34
    2220:	e3a08008 	mov	r8, #8
    2224:	e59f313c 	ldr	r3, [pc, #316]	; 2368 <sdio_init+0x660>
    2228:	e59f9134 	ldr	r9, [pc, #308]	; 2364 <sdio_init+0x65c>
    222c:	e58d202c 	str	r2, [sp, #44]	; 0x2c
    2230:	e58d3038 	str	r3, [sp, #56]	; 0x38
    2234:	e28d1028 	add	r1, sp, #40	; 0x28
    2238:	e5950004 	ldr	r0, [r5, #4]
    223c:	ebfffe0b 	bl	1a70 <sdio_request_execute>
    2240:	e3500000 	cmp	r0, #0
    2244:	1a00000a 	bne	2274 <sdio_init+0x56c>
    2248:	e2588001 	subs	r8, r8, #1
    224c:	1afffff8 	bne	2234 <sdio_init+0x52c>
    2250:	e5943018 	ldr	r3, [r4, #24]
    2254:	e3530000 	cmp	r3, #0
    2258:	ba000002 	blt	2268 <sdio_init+0x560>
    225c:	e5951000 	ldr	r1, [r5]
    2260:	e59f0120 	ldr	r0, [pc, #288]	; 2388 <sdio_init+0x680>
    2264:	ebfffd20 	bl	16ec <rumboot_printf>
    2268:	e3570000 	cmp	r7, #0
    226c:	0afffec8 	beq	1d94 <sdio_init+0x8c>
    2270:	eaffff07 	b	1e94 <sdio_init+0x18c>
    2274:	e5953004 	ldr	r3, [r5, #4]
    2278:	e5933018 	ldr	r3, [r3, #24]
    227c:	e3530000 	cmp	r3, #0
    2280:	e5843018 	str	r3, [r4, #24]
    2284:	b3a03002 	movlt	r3, #2
    2288:	b1a07000 	movlt	r7, r0
    228c:	b5c43004 	strblt	r3, [r4, #4]
    2290:	baffffee 	blt	2250 <sdio_init+0x548>
    2294:	ebfff9c1 	bl	9a0 <rumboot_platform_get_uptime>
    2298:	e1a0a000 	mov	sl, r0
    229c:	ebfff9bf 	bl	9a0 <rumboot_platform_get_uptime>
    22a0:	e040000a 	sub	r0, r0, sl
    22a4:	e1500009 	cmp	r0, r9
    22a8:	9afffffb 	bls	229c <sdio_init+0x594>
    22ac:	eaffffe5 	b	2248 <sdio_init+0x540>
    22b0:	e3a03010 	mov	r3, #16
    22b4:	e1a0100d 	mov	r1, sp
    22b8:	e58d3000 	str	r3, [sp]
    22bc:	e3a03c02 	mov	r3, #512	; 0x200
    22c0:	e5950004 	ldr	r0, [r5, #4]
    22c4:	e5cdb01c 	strb	fp, [sp, #28]
    22c8:	e58da004 	str	sl, [sp, #4]
    22cc:	e58d700c 	str	r7, [sp, #12]
    22d0:	e58d7008 	str	r7, [sp, #8]
    22d4:	e58d3010 	str	r3, [sp, #16]
    22d8:	ebfffde4 	bl	1a70 <sdio_request_execute>
    22dc:	e2509000 	subs	r9, r0, #0
    22e0:	1a000003 	bne	22f4 <sdio_init+0x5ec>
    22e4:	e5951000 	ldr	r1, [r5]
    22e8:	e59f009c 	ldr	r0, [pc, #156]	; 238c <sdio_init+0x684>
    22ec:	ebfffcfe 	bl	16ec <rumboot_printf>
    22f0:	eafffea8 	b	1d98 <sdio_init+0x90>
    22f4:	e5d43004 	ldrb	r3, [r4, #4]
    22f8:	e3530002 	cmp	r3, #2
    22fc:	0a000010 	beq	2344 <sdio_init+0x63c>
    2300:	e3a03006 	mov	r3, #6
    2304:	e1a0100d 	mov	r1, sp
    2308:	e5950004 	ldr	r0, [r5, #4]
    230c:	e58d3000 	str	r3, [sp]
    2310:	e5cd701c 	strb	r7, [sp, #28]
    2314:	e58da004 	str	sl, [sp, #4]
    2318:	e58d700c 	str	r7, [sp, #12]
    231c:	e58d7008 	str	r7, [sp, #8]
    2320:	e58da010 	str	sl, [sp, #16]
    2324:	e58d8014 	str	r8, [sp, #20]
    2328:	ebfffdd0 	bl	1a70 <sdio_request_execute>
    232c:	e2504000 	subs	r4, r0, #0
    2330:	1a000003 	bne	2344 <sdio_init+0x63c>
    2334:	e5951000 	ldr	r1, [r5]
    2338:	e59f0050 	ldr	r0, [pc, #80]	; 2390 <sdio_init+0x688>
    233c:	ebfffcea 	bl	16ec <rumboot_printf>
    2340:	eafffe93 	b	1d94 <sdio_init+0x8c>
    2344:	e59f3048 	ldr	r3, [pc, #72]	; 2394 <sdio_init+0x68c>
    2348:	e5952004 	ldr	r2, [r5, #4]
    234c:	e0876396 	umull	r6, r7, r6, r3
    2350:	e1a03ba7 	lsr	r3, r7, #23
    2354:	e2433001 	sub	r3, r3, #1
    2358:	e5823304 	str	r3, [r2, #772]	; 0x304
    235c:	eafffe8d 	b	1d98 <sdio_init+0x90>
    2360:	014f8b59 	cmpeq	pc, r9, asr fp	; <UNPREDICTABLE>
    2364:	0003d08f 	andeq	sp, r3, pc, lsl #1
    2368:	80ff8000 	rscshi	r8, pc, r0
    236c:	c0ff8000 	rscsgt	r8, pc, r0
    2370:	000049ac 	andeq	r4, r0, ip, lsr #19
    2374:	00004a04 	andeq	r4, r0, r4, lsl #20
    2378:	00004a22 	andeq	r4, r0, r2, lsr #20
    237c:	00004990 	muleq	r0, r0, r9
    2380:	00004a3f 	andeq	r4, r0, pc, lsr sl
    2384:	00004a5d 	andeq	r4, r0, sp, asr sl
    2388:	000049dc 	ldrdeq	r4, [r0], -ip
    238c:	00004a99 	muleq	r0, r9, sl
    2390:	00004ab2 			; <UNDEFINED> instruction: 0x00004ab2
    2394:	6b5fca6b 	blvs	17f4d48 <rumboot_platform_stack_area_end+0x1775d48>

Disassembly of section .text.spiflash_deinit:

00002398 <spiflash_deinit>:
    2398:	e5902004 	ldr	r2, [r0, #4]
    239c:	e5923004 	ldr	r3, [r2, #4]
    23a0:	e3c33002 	bic	r3, r3, #2
    23a4:	e5823004 	str	r3, [r2, #4]
    23a8:	e12fff1e 	bx	lr

Disassembly of section .text.spi_cs:

000023ac <spi_cs>:
    23ac:	e5903024 	ldr	r3, [r0, #36]	; 0x24
    23b0:	e3530000 	cmp	r3, #0
    23b4:	0a00000c 	beq	23ec <spi_cs+0x40>
    23b8:	e92d4070 	push	{r4, r5, r6, lr}
    23bc:	e1a04000 	mov	r4, r0
    23c0:	e1a05002 	mov	r5, r2
    23c4:	e1a06001 	mov	r6, r1
    23c8:	e5900004 	ldr	r0, [r0, #4]
    23cc:	e3a01001 	mov	r1, #1
    23d0:	eb0003ad 	bl	328c <pl022_internal_cs>
    23d4:	e5943024 	ldr	r3, [r4, #36]	; 0x24
    23d8:	e1a02005 	mov	r2, r5
    23dc:	e1a01006 	mov	r1, r6
    23e0:	e1a00004 	mov	r0, r4
    23e4:	e8bd4070 	pop	{r4, r5, r6, lr}
    23e8:	e12fff13 	bx	r3
    23ec:	e1a01002 	mov	r1, r2
    23f0:	e5900004 	ldr	r0, [r0, #4]
    23f4:	ea0003a4 	b	328c <pl022_internal_cs>

Disassembly of section .text.spiflash_init:

000023f8 <spiflash_init>:
    23f8:	e92d407f 	push	{r0, r1, r2, r3, r4, r5, r6, lr}
    23fc:	e5902010 	ldr	r2, [r0, #16]
    2400:	e3a03ffa 	mov	r3, #1000	; 0x3e8
    2404:	e3a05001 	mov	r5, #1
    2408:	e0030293 	mul	r3, r3, r2
    240c:	e59f202c 	ldr	r2, [pc, #44]	; 2440 <spiflash_init+0x48>
    2410:	e58d3000 	str	r3, [sp]
    2414:	e3a03008 	mov	r3, #8
    2418:	e1a04000 	mov	r4, r0
    241c:	e1a06001 	mov	r6, r1
    2420:	e5900004 	ldr	r0, [r0, #4]
    2424:	e1a0100d 	mov	r1, sp
    2428:	e98d002c 	stmib	sp, {r2, r3, r5}
    242c:	eb000382 	bl	323c <pl022_init>
    2430:	e1a00005 	mov	r0, r5
    2434:	e5864000 	str	r4, [r6]
    2438:	e28dd010 	add	sp, sp, #16
    243c:	e8bd8070 	pop	{r4, r5, r6, pc}
    2440:	00bebc20 	adcseq	fp, lr, r0, lsr #24

Disassembly of section .text.spiflash_read_flash:

00002444 <spiflash_read_flash>:
    2444:	e92d407f 	push	{r0, r1, r2, r3, r4, r5, r6, lr}
    2448:	e1a04003 	mov	r4, r3
    244c:	e3a03003 	mov	r3, #3
    2450:	e1a06002 	mov	r6, r2
    2454:	e5cd300c 	strb	r3, [sp, #12]
    2458:	e1a03821 	lsr	r3, r1, #16
    245c:	e28d200c 	add	r2, sp, #12
    2460:	e5cd300d 	strb	r3, [sp, #13]
    2464:	e1a03421 	lsr	r3, r1, #8
    2468:	e1a05000 	mov	r5, r0
    246c:	e5cd300e 	strb	r3, [sp, #14]
    2470:	e5cd100f 	strb	r1, [sp, #15]
    2474:	e58d4000 	str	r4, [sp]
    2478:	e1a01002 	mov	r1, r2
    247c:	e3a03004 	mov	r3, #4
    2480:	eb00038e 	bl	32c0 <pl022_xfer_timeout>
    2484:	e58d4000 	str	r4, [sp]
    2488:	e1a03004 	mov	r3, r4
    248c:	e1a02006 	mov	r2, r6
    2490:	e3a01000 	mov	r1, #0
    2494:	e1a00005 	mov	r0, r5
    2498:	eb000388 	bl	32c0 <pl022_xfer_timeout>
    249c:	e28dd010 	add	sp, sp, #16
    24a0:	e8bd8070 	pop	{r4, r5, r6, pc}

Disassembly of section .text.spiflash_read:

000024a4 <spiflash_read>:
    24a4:	e92d41f0 	push	{r4, r5, r6, r7, r8, lr}
    24a8:	e1a04000 	mov	r4, r0
    24ac:	e1a06003 	mov	r6, r3
    24b0:	e1a07002 	mov	r7, r2
    24b4:	e3a02000 	mov	r2, #0
    24b8:	e1a05001 	mov	r5, r1
    24bc:	ebffffba 	bl	23ac <spi_cs>
    24c0:	e59d3018 	ldr	r3, [sp, #24]
    24c4:	e1a02007 	mov	r2, r7
    24c8:	e1a01006 	mov	r1, r6
    24cc:	e5940004 	ldr	r0, [r4, #4]
    24d0:	ebffffdb 	bl	2444 <spiflash_read_flash>
    24d4:	e1a00004 	mov	r0, r4
    24d8:	e3a02001 	mov	r2, #1
    24dc:	e1a01005 	mov	r1, r5
    24e0:	ebffffb1 	bl	23ac <spi_cs>
    24e4:	e59d0018 	ldr	r0, [sp, #24]
    24e8:	e8bd81f0 	pop	{r4, r5, r6, r7, r8, pc}

Disassembly of section .text.i2c_stat_rst:

000024ec <i2c_stat_rst>:
    24ec:	e3a03000 	mov	r3, #0
    24f0:	e3a02001 	mov	r2, #1
    24f4:	e5803020 	str	r3, [r0, #32]
    24f8:	e5802020 	str	r2, [r0, #32]
    24fc:	e5803020 	str	r3, [r0, #32]
    2500:	e12fff1e 	bx	lr

Disassembly of section .text.eeprom_init:

00002504 <eeprom_init>:
    2504:	e92d4070 	push	{r4, r5, r6, lr}
    2508:	e5906004 	ldr	r6, [r0, #4]
    250c:	e59f30cc 	ldr	r3, [pc, #204]	; 25e0 <eeprom_init+0xdc>
    2510:	e5962000 	ldr	r2, [r6]
    2514:	e1a05000 	mov	r5, r0
    2518:	e1520003 	cmp	r2, r3
    251c:	0a000004 	beq	2534 <eeprom_init+0x30>
    2520:	e5901000 	ldr	r1, [r0]
    2524:	e59f00b8 	ldr	r0, [pc, #184]	; 25e4 <eeprom_init+0xe0>
    2528:	ebfffc6f 	bl	16ec <rumboot_printf>
    252c:	e3a00000 	mov	r0, #0
    2530:	e8bd8070 	pop	{r4, r5, r6, pc}
    2534:	e1a00006 	mov	r0, r6
    2538:	ebffffeb 	bl	24ec <i2c_stat_rst>
    253c:	e5963018 	ldr	r3, [r6, #24]
    2540:	e2132402 	ands	r2, r3, #33554432	; 0x2000000
    2544:	03a0c001 	moveq	ip, #1
    2548:	13a0c000 	movne	ip, #0
    254c:	e2133502 	ands	r3, r3, #8388608	; 0x800000
    2550:	038cc001 	orreq	ip, ip, #1
    2554:	e35c0000 	cmp	ip, #0
    2558:	0a000007 	beq	257c <eeprom_init+0x78>
    255c:	e2933000 	adds	r3, r3, #0
    2560:	13a03001 	movne	r3, #1
    2564:	e2922000 	adds	r2, r2, #0
    2568:	13a02001 	movne	r2, #1
    256c:	e5951000 	ldr	r1, [r5]
    2570:	e59f0070 	ldr	r0, [pc, #112]	; 25e8 <eeprom_init+0xe4>
    2574:	ebfffc5c 	bl	16ec <rumboot_printf>
    2578:	eaffffeb 	b	252c <eeprom_init+0x28>
    257c:	e5952010 	ldr	r2, [r5, #16]
    2580:	e3a00ffa 	mov	r0, #1000	; 0x3e8
    2584:	e59f3060 	ldr	r3, [pc, #96]	; 25ec <eeprom_init+0xe8>
    2588:	e0020290 	mul	r2, r0, r2
    258c:	e3a04001 	mov	r4, #1
    2590:	e0832392 	umull	r2, r3, r2, r3
    2594:	e1a039a3 	lsr	r3, r3, #19
    2598:	e2433001 	sub	r3, r3, #1
    259c:	e5813000 	str	r3, [r1]
    25a0:	e586400c 	str	r4, [r6, #12]
    25a4:	e586c00c 	str	ip, [r6, #12]
    25a8:	e5863024 	str	r3, [r6, #36]	; 0x24
    25ac:	e5916000 	ldr	r6, [r1]
    25b0:	e5953010 	ldr	r3, [r5, #16]
    25b4:	e0861004 	add	r1, r6, r4
    25b8:	e0000390 	mul	r0, r0, r3
    25bc:	e0811101 	add	r1, r1, r1, lsl #2
    25c0:	ebfff70d 	bl	1fc <__udivsi3>
    25c4:	e1a02006 	mov	r2, r6
    25c8:	e5951000 	ldr	r1, [r5]
    25cc:	e1a03000 	mov	r3, r0
    25d0:	e59f0018 	ldr	r0, [pc, #24]	; 25f0 <eeprom_init+0xec>
    25d4:	ebfffc44 	bl	16ec <rumboot_printf>
    25d8:	e1a00004 	mov	r0, r4
    25dc:	e8bd8070 	pop	{r4, r5, r6, pc}
    25e0:	012c012c 			; <UNDEFINED> instruction: 0x012c012c
    25e4:	00004ae0 	andeq	r4, r0, r0, ror #21
    25e8:	00004b0b 	andeq	r4, r0, fp, lsl #22
    25ec:	431bde83 	tstmi	fp, #2096	; 0x830
    25f0:	00004b3e 	andeq	r4, r0, lr, lsr fp

Disassembly of section .text.eeprom_deinit:

000025f4 <eeprom_deinit>:
    25f4:	e5903004 	ldr	r3, [r0, #4]
    25f8:	e3a02001 	mov	r2, #1
    25fc:	e583200c 	str	r2, [r3, #12]
    2600:	e3a02000 	mov	r2, #0
    2604:	e583200c 	str	r2, [r3, #12]
    2608:	e12fff1e 	bx	lr

Disassembly of section .text.eeprom_read:

0000260c <eeprom_read>:
    260c:	e92d4ff0 	push	{r4, r5, r6, r7, r8, r9, sl, fp, lr}
    2610:	e1a0a003 	mov	sl, r3
    2614:	e24dd014 	sub	sp, sp, #20
    2618:	e3a03000 	mov	r3, #0
    261c:	e1a06000 	mov	r6, r0
    2620:	e58d1008 	str	r1, [sp, #8]
    2624:	e58d2000 	str	r2, [sp]
    2628:	e58d3004 	str	r3, [sp, #4]
    262c:	e59d3038 	ldr	r3, [sp, #56]	; 0x38
    2630:	e3530000 	cmp	r3, #0
    2634:	1a000002 	bne	2644 <eeprom_read+0x38>
    2638:	e59d0004 	ldr	r0, [sp, #4]
    263c:	e28dd014 	add	sp, sp, #20
    2640:	e8bd8ff0 	pop	{r4, r5, r6, r7, r8, r9, sl, fp, pc}
    2644:	e59d3038 	ldr	r3, [sp, #56]	; 0x38
    2648:	e5962014 	ldr	r2, [r6, #20]
    264c:	e3530020 	cmp	r3, #32
    2650:	31a07003 	movcc	r7, r3
    2654:	e6ff307a 	uxth	r3, sl
    2658:	e30041fe 	movw	r4, #510	; 0x1fe
    265c:	e5965004 	ldr	r5, [r6, #4]
    2660:	e3a01000 	mov	r1, #0
    2664:	e0044082 	and	r4, r4, r2, lsl #1
    2668:	e1a09003 	mov	r9, r3
    266c:	e1a02423 	lsr	r2, r3, #8
    2670:	e6ef3073 	uxtb	r3, r3
    2674:	e5851018 	str	r1, [r5, #24]
    2678:	e5854030 	str	r4, [r5, #48]	; 0x30
    267c:	e5852030 	str	r2, [r5, #48]	; 0x30
    2680:	e5853030 	str	r3, [r5, #48]	; 0x30
    2684:	e3a03013 	mov	r3, #19
    2688:	23a07020 	movcs	r7, #32
    268c:	e5853010 	str	r3, [r5, #16]
    2690:	ebfff8c2 	bl	9a0 <rumboot_platform_get_uptime>
    2694:	e2858018 	add	r8, r5, #24
    2698:	e1a02000 	mov	r2, r0
    269c:	e58d200c 	str	r2, [sp, #12]
    26a0:	ebfff8be 	bl	9a0 <rumboot_platform_get_uptime>
    26a4:	e59d200c 	ldr	r2, [sp, #12]
    26a8:	e0400002 	sub	r0, r0, r2
    26ac:	e3500063 	cmp	r0, #99	; 0x63
    26b0:	9a000004 	bls	26c8 <eeprom_read+0xbc>
    26b4:	e1a02009 	mov	r2, r9
    26b8:	e5961000 	ldr	r1, [r6]
    26bc:	e59f01c4 	ldr	r0, [pc, #452]	; 2888 <eeprom_read+0x27c>
    26c0:	ebfffc09 	bl	16ec <rumboot_printf>
    26c4:	ea000009 	b	26f0 <eeprom_read+0xe4>
    26c8:	e5983000 	ldr	r3, [r8]
    26cc:	e2133010 	ands	r3, r3, #16
    26d0:	1a000062 	bne	2860 <eeprom_read+0x254>
    26d4:	e598b000 	ldr	fp, [r8]
    26d8:	e21bbc02 	ands	fp, fp, #512	; 0x200
    26dc:	0a000005 	beq	26f8 <eeprom_read+0xec>
    26e0:	e5961000 	ldr	r1, [r6]
    26e4:	e59f01a0 	ldr	r0, [pc, #416]	; 288c <eeprom_read+0x280>
    26e8:	e58d300c 	str	r3, [sp, #12]
    26ec:	ebfffbfe 	bl	16ec <rumboot_printf>
    26f0:	e3a04000 	mov	r4, #0
    26f4:	ea000018 	b	275c <eeprom_read+0x150>
    26f8:	e5983000 	ldr	r3, [r8]
    26fc:	e3130002 	tst	r3, #2
    2700:	0affffe5 	beq	269c <eeprom_read+0x90>
    2704:	e5961000 	ldr	r1, [r6]
    2708:	e59f0180 	ldr	r0, [pc, #384]	; 2890 <eeprom_read+0x284>
    270c:	eafffff6 	b	26ec <eeprom_read+0xe0>
    2710:	ebfff8a2 	bl	9a0 <rumboot_platform_get_uptime>
    2714:	e1a03000 	mov	r3, r0
    2718:	e58d300c 	str	r3, [sp, #12]
    271c:	ebfff89f 	bl	9a0 <rumboot_platform_get_uptime>
    2720:	e59d300c 	ldr	r3, [sp, #12]
    2724:	e0400003 	sub	r0, r0, r3
    2728:	e3500063 	cmp	r0, #99	; 0x63
    272c:	9a000019 	bls	2798 <eeprom_read+0x18c>
    2730:	e3a03000 	mov	r3, #0
    2734:	e35b0000 	cmp	fp, #0
    2738:	0a00001b 	beq	27ac <eeprom_read+0x1a0>
    273c:	e5962004 	ldr	r2, [r6, #4]
    2740:	e5922018 	ldr	r2, [r2, #24]
    2744:	e3120c02 	tst	r2, #512	; 0x200
    2748:	0a000017 	beq	27ac <eeprom_read+0x1a0>
    274c:	e0892004 	add	r2, r9, r4
    2750:	e5961000 	ldr	r1, [r6]
    2754:	e59f0138 	ldr	r0, [pc, #312]	; 2894 <eeprom_read+0x288>
    2758:	ebfffbe3 	bl	16ec <rumboot_printf>
    275c:	e1a00005 	mov	r0, r5
    2760:	ebffff61 	bl	24ec <i2c_stat_rst>
    2764:	e59d3004 	ldr	r3, [sp, #4]
    2768:	e1570004 	cmp	r7, r4
    276c:	e0833004 	add	r3, r3, r4
    2770:	e58d3004 	str	r3, [sp, #4]
    2774:	1affffaf 	bne	2638 <eeprom_read+0x2c>
    2778:	e59d3038 	ldr	r3, [sp, #56]	; 0x38
    277c:	e08aa007 	add	sl, sl, r7
    2780:	e0433007 	sub	r3, r3, r7
    2784:	e58d3038 	str	r3, [sp, #56]	; 0x38
    2788:	e59d3000 	ldr	r3, [sp]
    278c:	e0833007 	add	r3, r3, r7
    2790:	e58d3000 	str	r3, [sp]
    2794:	eaffffa4 	b	262c <eeprom_read+0x20>
    2798:	e5982000 	ldr	r2, [r8]
    279c:	e3120080 	tst	r2, #128	; 0x80
    27a0:	1affffdc 	bne	2718 <eeprom_read+0x10c>
    27a4:	e3a03001 	mov	r3, #1
    27a8:	eaffffe1 	b	2734 <eeprom_read+0x128>
    27ac:	e5962004 	ldr	r2, [r6, #4]
    27b0:	e5922018 	ldr	r2, [r2, #24]
    27b4:	e3120002 	tst	r2, #2
    27b8:	10892004 	addne	r2, r9, r4
    27bc:	15961000 	ldrne	r1, [r6]
    27c0:	159f00d0 	ldrne	r0, [pc, #208]	; 2898 <eeprom_read+0x28c>
    27c4:	1affffe3 	bne	2758 <eeprom_read+0x14c>
    27c8:	e3530000 	cmp	r3, #0
    27cc:	00892004 	addeq	r2, r9, r4
    27d0:	05961000 	ldreq	r1, [r6]
    27d4:	059f00c0 	ldreq	r0, [pc, #192]	; 289c <eeprom_read+0x290>
    27d8:	0affffde 	beq	2758 <eeprom_read+0x14c>
    27dc:	e5953430 	ldr	r3, [r5, #1072]	; 0x430
    27e0:	e59d2000 	ldr	r2, [sp]
    27e4:	e7c23004 	strb	r3, [r2, r4]
    27e8:	e2844001 	add	r4, r4, #1
    27ec:	e1570004 	cmp	r7, r4
    27f0:	e24bb001 	sub	fp, fp, #1
    27f4:	1affffc5 	bne	2710 <eeprom_read+0x104>
    27f8:	ebfff868 	bl	9a0 <rumboot_platform_get_uptime>
    27fc:	e1a09000 	mov	r9, r0
    2800:	ebfff866 	bl	9a0 <rumboot_platform_get_uptime>
    2804:	e0400009 	sub	r0, r0, r9
    2808:	e3500027 	cmp	r0, #39	; 0x27
    280c:	8a000004 	bhi	2824 <eeprom_read+0x218>
    2810:	e1a00005 	mov	r0, r5
    2814:	ebffff34 	bl	24ec <i2c_stat_rst>
    2818:	e5983000 	ldr	r3, [r8]
    281c:	e3130001 	tst	r3, #1
    2820:	1afffff6 	bne	2800 <eeprom_read+0x1f4>
    2824:	e5953018 	ldr	r3, [r5, #24]
    2828:	e3130001 	tst	r3, #1
    282c:	1a000007 	bne	2850 <eeprom_read+0x244>
    2830:	e3a02001 	mov	r2, #1
    2834:	e59d3008 	ldr	r3, [sp, #8]
    2838:	e5933000 	ldr	r3, [r3]
    283c:	e585200c 	str	r2, [r5, #12]
    2840:	e3a02000 	mov	r2, #0
    2844:	e585200c 	str	r2, [r5, #12]
    2848:	e5853024 	str	r3, [r5, #36]	; 0x24
    284c:	eaffffc2 	b	275c <eeprom_read+0x150>
    2850:	e5961000 	ldr	r1, [r6]
    2854:	e59f0044 	ldr	r0, [pc, #68]	; 28a0 <eeprom_read+0x294>
    2858:	ebfffba3 	bl	16ec <rumboot_printf>
    285c:	eafffff3 	b	2830 <eeprom_read+0x224>
    2860:	e1a00005 	mov	r0, r5
    2864:	ebffff20 	bl	24ec <i2c_stat_rst>
    2868:	e3844001 	orr	r4, r4, #1
    286c:	e3a0306b 	mov	r3, #107	; 0x6b
    2870:	e585701c 	str	r7, [r5, #28]
    2874:	e1a0b007 	mov	fp, r7
    2878:	e5854030 	str	r4, [r5, #48]	; 0x30
    287c:	e5853010 	str	r3, [r5, #16]
    2880:	e3a04000 	mov	r4, #0
    2884:	eaffffd8 	b	27ec <eeprom_read+0x1e0>
    2888:	00004c90 	muleq	r0, r0, ip
    288c:	00004b61 	andeq	r4, r0, r1, ror #22
    2890:	00004b94 	muleq	r0, r4, fp
    2894:	00004bd3 	ldrdeq	r4, [r0], -r3
    2898:	00004c00 	andeq	r4, r0, r0, lsl #24
    289c:	00004c2e 	andeq	r4, r0, lr, lsr #24
    28a0:	00004c5f 	andeq	r4, r0, pc, asr ip

Disassembly of section .text.find_source_by_id:

000028a4 <find_source_by_id>:
    28a4:	e92d4010 	push	{r4, lr}
    28a8:	e1a04000 	mov	r4, r0
    28ac:	ebfff8d5 	bl	c08 <rumboot_platform_get_bootsources>
    28b0:	e3a03000 	mov	r3, #0
    28b4:	e1530004 	cmp	r3, r4
    28b8:	0a000003 	beq	28cc <find_source_by_id+0x28>
    28bc:	e5b02028 	ldr	r2, [r0, #40]!	; 0x28
    28c0:	e2833001 	add	r3, r3, #1
    28c4:	e3520000 	cmp	r2, #0
    28c8:	1afffff9 	bne	28b4 <find_source_by_id+0x10>
    28cc:	e5903000 	ldr	r3, [r0]
    28d0:	e3530000 	cmp	r3, #0
    28d4:	03a00000 	moveq	r0, #0
    28d8:	e8bd8010 	pop	{r4, pc}

Disassembly of section .text.bootsource_init:

000028dc <bootsource_init>:
    28dc:	e590301c 	ldr	r3, [r0, #28]
    28e0:	e92d4070 	push	{r4, r5, r6, lr}
    28e4:	e1a04000 	mov	r4, r0
    28e8:	e3530000 	cmp	r3, #0
    28ec:	e1a05001 	mov	r5, r1
    28f0:	0a00000d 	beq	292c <bootsource_init+0x50>
    28f4:	e12fff33 	blx	r3
    28f8:	e3500000 	cmp	r0, #0
    28fc:	1a00000a 	bne	292c <bootsource_init+0x50>
    2900:	e5941000 	ldr	r1, [r4]
    2904:	e59f0078 	ldr	r0, [pc, #120]	; 2984 <bootsource_init+0xa8>
    2908:	ebfffb77 	bl	16ec <rumboot_printf>
    290c:	e5943020 	ldr	r3, [r4, #32]
    2910:	e3530000 	cmp	r3, #0
    2914:	0a000002 	beq	2924 <bootsource_init+0x48>
    2918:	e1a01005 	mov	r1, r5
    291c:	e1a00004 	mov	r0, r4
    2920:	e12fff33 	blx	r3
    2924:	e3a00000 	mov	r0, #0
    2928:	e8bd8070 	pop	{r4, r5, r6, pc}
    292c:	e5943018 	ldr	r3, [r4, #24]
    2930:	e5933008 	ldr	r3, [r3, #8]
    2934:	e3530000 	cmp	r3, #0
    2938:	1a000001 	bne	2944 <bootsource_init+0x68>
    293c:	e3a00001 	mov	r0, #1
    2940:	e8bd8070 	pop	{r4, r5, r6, pc}
    2944:	e1a01005 	mov	r1, r5
    2948:	e1a00004 	mov	r0, r4
    294c:	e12fff33 	blx	r3
    2950:	e3500000 	cmp	r0, #0
    2954:	1afffff8 	bne	293c <bootsource_init+0x60>
    2958:	e5941000 	ldr	r1, [r4]
    295c:	e59f0024 	ldr	r0, [pc, #36]	; 2988 <bootsource_init+0xac>
    2960:	ebfffb61 	bl	16ec <rumboot_printf>
    2964:	e5943018 	ldr	r3, [r4, #24]
    2968:	e593300c 	ldr	r3, [r3, #12]
    296c:	e3530000 	cmp	r3, #0
    2970:	0affffe5 	beq	290c <bootsource_init+0x30>
    2974:	e1a01005 	mov	r1, r5
    2978:	e1a00004 	mov	r0, r4
    297c:	e12fff33 	blx	r3
    2980:	eaffffe1 	b	290c <bootsource_init+0x30>
    2984:	00004ce0 	andeq	r4, r0, r0, ror #25
    2988:	00004d11 	andeq	r4, r0, r1, lsl sp

Disassembly of section .text.bootsource_read:

0000298c <bootsource_read>:
    298c:	e92d47f0 	push	{r4, r5, r6, r7, r8, r9, sl, lr}
    2990:	e1a07003 	mov	r7, r3
    2994:	e5903018 	ldr	r3, [r0, #24]
    2998:	e1a04000 	mov	r4, r0
    299c:	e5936004 	ldr	r6, [r3, #4]
    29a0:	e1a08001 	mov	r8, r1
    29a4:	e3560000 	cmp	r6, #0
    29a8:	e1a09002 	mov	r9, r2
    29ac:	e59d5020 	ldr	r5, [sp, #32]
    29b0:	0a00000d 	beq	29ec <bootsource_read+0x60>
    29b4:	e1a01006 	mov	r1, r6
    29b8:	e1a00007 	mov	r0, r7
    29bc:	ebfff638 	bl	2a4 <__aeabi_uidivmod>
    29c0:	e3510000 	cmp	r1, #0
    29c4:	1a000012 	bne	2a14 <bootsource_read+0x88>
    29c8:	e1a01006 	mov	r1, r6
    29cc:	e1a00005 	mov	r0, r5
    29d0:	ebfff633 	bl	2a4 <__aeabi_uidivmod>
    29d4:	e3510000 	cmp	r1, #0
    29d8:	0a000003 	beq	29ec <bootsource_read+0x60>
    29dc:	e0455001 	sub	r5, r5, r1
    29e0:	e59f0040 	ldr	r0, [pc, #64]	; 2a28 <bootsource_read+0x9c>
    29e4:	e5941000 	ldr	r1, [r4]
    29e8:	ebfffb3f 	bl	16ec <rumboot_printf>
    29ec:	e5943018 	ldr	r3, [r4, #24]
    29f0:	e58d5020 	str	r5, [sp, #32]
    29f4:	e593e010 	ldr	lr, [r3, #16]
    29f8:	e1a02009 	mov	r2, r9
    29fc:	e1a03007 	mov	r3, r7
    2a00:	e1a01008 	mov	r1, r8
    2a04:	e1a00004 	mov	r0, r4
    2a08:	e1a0c00e 	mov	ip, lr
    2a0c:	e8bd47f0 	pop	{r4, r5, r6, r7, r8, r9, sl, lr}
    2a10:	e12fff1c 	bx	ip
    2a14:	e5941000 	ldr	r1, [r4]
    2a18:	e59f000c 	ldr	r0, [pc, #12]	; 2a2c <bootsource_read+0xa0>
    2a1c:	ebfffb32 	bl	16ec <rumboot_printf>
    2a20:	e3a00000 	mov	r0, #0
    2a24:	e8bd87f0 	pop	{r4, r5, r6, r7, r8, r9, sl, pc}
    2a28:	00004d62 	andeq	r4, r0, r2, ror #26
    2a2c:	00004d32 	andeq	r4, r0, r2, lsr sp

Disassembly of section .text.bootsource_deinit:

00002a30 <bootsource_deinit>:
    2a30:	e5903018 	ldr	r3, [r0, #24]
    2a34:	e92d4070 	push	{r4, r5, r6, lr}
    2a38:	e1a04000 	mov	r4, r0
    2a3c:	e593300c 	ldr	r3, [r3, #12]
    2a40:	e1a05001 	mov	r5, r1
    2a44:	e3530000 	cmp	r3, #0
    2a48:	0a000000 	beq	2a50 <bootsource_deinit+0x20>
    2a4c:	e12fff33 	blx	r3
    2a50:	e5943020 	ldr	r3, [r4, #32]
    2a54:	e3530000 	cmp	r3, #0
    2a58:	08bd8070 	popeq	{r4, r5, r6, pc}
    2a5c:	e1a01005 	mov	r1, r5
    2a60:	e1a00004 	mov	r0, r4
    2a64:	e8bd4070 	pop	{r4, r5, r6, lr}
    2a68:	e12fff13 	bx	r3

Disassembly of section .text.bootsource_load_img:

00002a6c <bootsource_load_img>:
    2a6c:	e92d4ff0 	push	{r4, r5, r6, r7, r8, r9, sl, fp, lr}
    2a70:	e1a09003 	mov	r9, r3
    2a74:	e5903018 	ldr	r3, [r0, #24]
    2a78:	e24dd014 	sub	sp, sp, #20
    2a7c:	e5934004 	ldr	r4, [r3, #4]
    2a80:	e1a07000 	mov	r7, r0
    2a84:	e3540000 	cmp	r4, #0
    2a88:	e1a08001 	mov	r8, r1
    2a8c:	e1a06002 	mov	r6, r2
    2a90:	e59d5038 	ldr	r5, [sp, #56]	; 0x38
    2a94:	0a000008 	beq	2abc <bootsource_load_img+0x50>
    2a98:	e354003f 	cmp	r4, #63	; 0x3f
    2a9c:	8a000007 	bhi	2ac0 <bootsource_load_img+0x54>
    2aa0:	e1a01004 	mov	r1, r4
    2aa4:	e3a00040 	mov	r0, #64	; 0x40
    2aa8:	ebfff5fd 	bl	2a4 <__aeabi_uidivmod>
    2aac:	e3510000 	cmp	r1, #0
    2ab0:	12844040 	addne	r4, r4, #64	; 0x40
    2ab4:	10444001 	subne	r4, r4, r1
    2ab8:	1a000000 	bne	2ac0 <bootsource_load_img+0x54>
    2abc:	e3a04040 	mov	r4, #64	; 0x40
    2ac0:	e58d4000 	str	r4, [sp]
    2ac4:	e1a02006 	mov	r2, r6
    2ac8:	e5953000 	ldr	r3, [r5]
    2acc:	e1a01008 	mov	r1, r8
    2ad0:	e1a00007 	mov	r0, r7
    2ad4:	ebffffac 	bl	298c <bootsource_read>
    2ad8:	e1540000 	cmp	r4, r0
    2adc:	e1a0a000 	mov	sl, r0
    2ae0:	83e04009 	mvnhi	r4, #9
    2ae4:	8a000021 	bhi	2b70 <bootsource_load_img+0x104>
    2ae8:	e5953000 	ldr	r3, [r5]
    2aec:	e586703c 	str	r7, [r6, #60]	; 0x3c
    2af0:	e0833000 	add	r3, r3, r0
    2af4:	e28d100c 	add	r1, sp, #12
    2af8:	e5853000 	str	r3, [r5]
    2afc:	e1a00006 	mov	r0, r6
    2b00:	eb0000b2 	bl	2dd0 <rumboot_bootimage_check_header>
    2b04:	e2504000 	subs	r4, r0, #0
    2b08:	ba000018 	blt	2b70 <bootsource_load_img+0x104>
    2b0c:	e5973018 	ldr	r3, [r7, #24]
    2b10:	e593b004 	ldr	fp, [r3, #4]
    2b14:	e35b0000 	cmp	fp, #0
    2b18:	0a000004 	beq	2b30 <bootsource_load_img+0xc4>
    2b1c:	e1a0100b 	mov	r1, fp
    2b20:	ebfff5df 	bl	2a4 <__aeabi_uidivmod>
    2b24:	e3510000 	cmp	r1, #0
    2b28:	1084400b 	addne	r4, r4, fp
    2b2c:	10444001 	subne	r4, r4, r1
    2b30:	e2843040 	add	r3, r4, #64	; 0x40
    2b34:	e1530009 	cmp	r3, r9
    2b38:	83e04007 	mvnhi	r4, #7
    2b3c:	8a00000b 	bhi	2b70 <bootsource_load_img+0x104>
    2b40:	e58d4000 	str	r4, [sp]
    2b44:	e086200a 	add	r2, r6, sl
    2b48:	e5953000 	ldr	r3, [r5]
    2b4c:	e1a01008 	mov	r1, r8
    2b50:	e1a00007 	mov	r0, r7
    2b54:	ebffff8c 	bl	298c <bootsource_read>
    2b58:	e5953000 	ldr	r3, [r5]
    2b5c:	e1a00006 	mov	r0, r6
    2b60:	e0834004 	add	r4, r3, r4
    2b64:	e5854000 	str	r4, [r5]
    2b68:	eb00011a 	bl	2fd8 <rumboot_bootimage_check_data>
    2b6c:	e1a04000 	mov	r4, r0
    2b70:	e1a00004 	mov	r0, r4
    2b74:	e28dd014 	add	sp, sp, #20
    2b78:	e8bd8ff0 	pop	{r4, r5, r6, r7, r8, r9, sl, fp, pc}

Disassembly of section .text.bootsource_try_source_once:

00002b7c <bootsource_try_source_once>:
    2b7c:	e92d47f3 	push	{r0, r1, r4, r5, r6, r7, r8, r9, sl, lr}
    2b80:	e1a05000 	mov	r5, r0
    2b84:	e1a09001 	mov	r9, r1
    2b88:	e1a06002 	mov	r6, r2
    2b8c:	e1a0a003 	mov	sl, r3
    2b90:	e59d7028 	ldr	r7, [sp, #40]	; 0x28
    2b94:	ebffff50 	bl	28dc <bootsource_init>
    2b98:	e3500000 	cmp	r0, #0
    2b9c:	03e04008 	mvneq	r4, #8
    2ba0:	0a000024 	beq	2c38 <bootsource_try_source_once+0xbc>
    2ba4:	e5953018 	ldr	r3, [r5, #24]
    2ba8:	e5974000 	ldr	r4, [r7]
    2bac:	e5938004 	ldr	r8, [r3, #4]
    2bb0:	e3580000 	cmp	r8, #0
    2bb4:	0a000005 	beq	2bd0 <bootsource_try_source_once+0x54>
    2bb8:	e1a00004 	mov	r0, r4
    2bbc:	e1a01008 	mov	r1, r8
    2bc0:	ebfff5b7 	bl	2a4 <__aeabi_uidivmod>
    2bc4:	e3510000 	cmp	r1, #0
    2bc8:	10844008 	addne	r4, r4, r8
    2bcc:	10444001 	subne	r4, r4, r1
    2bd0:	e1a02004 	mov	r2, r4
    2bd4:	e5874000 	str	r4, [r7]
    2bd8:	e5951000 	ldr	r1, [r5]
    2bdc:	e59f00a8 	ldr	r0, [pc, #168]	; 2c8c <bootsource_try_source_once+0x110>
    2be0:	ebfffac1 	bl	16ec <rumboot_printf>
    2be4:	e1a0300a 	mov	r3, sl
    2be8:	e1a02006 	mov	r2, r6
    2bec:	e1a01009 	mov	r1, r9
    2bf0:	e58d7000 	str	r7, [sp]
    2bf4:	e1a00005 	mov	r0, r5
    2bf8:	ebffff9b 	bl	2a6c <bootsource_load_img>
    2bfc:	e1a01009 	mov	r1, r9
    2c00:	e1a04000 	mov	r4, r0
    2c04:	e1a00005 	mov	r0, r5
    2c08:	ebffff88 	bl	2a30 <bootsource_deinit>
    2c0c:	e3540000 	cmp	r4, #0
    2c10:	0a00000b 	beq	2c44 <bootsource_try_source_once+0xc8>
    2c14:	e5956000 	ldr	r6, [r5]
    2c18:	e2645000 	rsb	r5, r4, #0
    2c1c:	e1a00005 	mov	r0, r5
    2c20:	eb000062 	bl	2db0 <rumboot_strerror>
    2c24:	e1a03005 	mov	r3, r5
    2c28:	e1a01006 	mov	r1, r6
    2c2c:	e1a02000 	mov	r2, r0
    2c30:	e59f0058 	ldr	r0, [pc, #88]	; 2c90 <bootsource_try_source_once+0x114>
    2c34:	ebfffaac 	bl	16ec <rumboot_printf>
    2c38:	e1a00004 	mov	r0, r4
    2c3c:	e28dd008 	add	sp, sp, #8
    2c40:	e8bd87f0 	pop	{r4, r5, r6, r7, r8, r9, sl, pc}
    2c44:	e5951000 	ldr	r1, [r5]
    2c48:	e59f0044 	ldr	r0, [pc, #68]	; 2c94 <bootsource_try_source_once+0x118>
    2c4c:	ebfffaa6 	bl	16ec <rumboot_printf>
    2c50:	e5c64000 	strb	r4, [r6]
    2c54:	e5c64001 	strb	r4, [r6, #1]
    2c58:	e5c64002 	strb	r4, [r6, #2]
    2c5c:	e5c64003 	strb	r4, [r6, #3]
    2c60:	e1a00006 	mov	r0, r6
    2c64:	ebfff7ec 	bl	c1c <rumboot_platform_exec>
    2c68:	e5951000 	ldr	r1, [r5]
    2c6c:	e2504000 	subs	r4, r0, #0
    2c70:	c59f3020 	ldrgt	r3, [pc, #32]	; 2c98 <bootsource_try_source_once+0x11c>
    2c74:	ca000001 	bgt	2c80 <bootsource_try_source_once+0x104>
    2c78:	159f301c 	ldrne	r3, [pc, #28]	; 2c9c <bootsource_try_source_once+0x120>
    2c7c:	059f301c 	ldreq	r3, [pc, #28]	; 2ca0 <bootsource_try_source_once+0x124>
    2c80:	e1a02004 	mov	r2, r4
    2c84:	e59f0018 	ldr	r0, [pc, #24]	; 2ca4 <bootsource_try_source_once+0x128>
    2c88:	eaffffe9 	b	2c34 <bootsource_try_source_once+0xb8>
    2c8c:	00004de9 	andeq	r4, r0, r9, ror #27
    2c90:	00004e11 	andeq	r4, r0, r1, lsl lr
    2c94:	00004e2b 	andeq	r4, r0, fp, lsr #28
    2c98:	00004da6 	andeq	r4, r0, r6, lsr #27
    2c9c:	00004dd5 	ldrdeq	r4, [r0], -r5
    2ca0:	00004dbf 			; <UNDEFINED> instruction: 0x00004dbf
    2ca4:	00004e54 	andeq	r4, r0, r4, asr lr

Disassembly of section .text.bootsource_try_single:

00002ca8 <bootsource_try_single>:
    2ca8:	e92d41f3 	push	{r0, r1, r4, r5, r6, r7, r8, lr}
    2cac:	e1a04000 	mov	r4, r0
    2cb0:	e1a05001 	mov	r5, r1
    2cb4:	e1a06002 	mov	r6, r2
    2cb8:	e1a07003 	mov	r7, r3
    2cbc:	e59d8020 	ldr	r8, [sp, #32]
    2cc0:	e58d8000 	str	r8, [sp]
    2cc4:	e1a03007 	mov	r3, r7
    2cc8:	e1a02006 	mov	r2, r6
    2ccc:	e1a01005 	mov	r1, r5
    2cd0:	e1a00004 	mov	r0, r4
    2cd4:	ebffffa8 	bl	2b7c <bootsource_try_source_once>
    2cd8:	e3500000 	cmp	r0, #0
    2cdc:	0afffff7 	beq	2cc0 <bootsource_try_single+0x18>
    2ce0:	e28dd008 	add	sp, sp, #8
    2ce4:	e8bd81f0 	pop	{r4, r5, r6, r7, r8, pc}

Disassembly of section .text.bootsource_try_chain:

00002ce8 <bootsource_try_chain>:
    2ce8:	e92d41ff 	push	{r0, r1, r2, r3, r4, r5, r6, r7, r8, lr}
    2cec:	e1a05000 	mov	r5, r0
    2cf0:	e1a06001 	mov	r6, r1
    2cf4:	e1a07002 	mov	r7, r2
    2cf8:	ebfff7c2 	bl	c08 <rumboot_platform_get_bootsources>
    2cfc:	e28d800c 	add	r8, sp, #12
    2d00:	e1a04000 	mov	r4, r0
    2d04:	e3540000 	cmp	r4, #0
    2d08:	0a000002 	beq	2d18 <bootsource_try_chain+0x30>
    2d0c:	e5943000 	ldr	r3, [r4]
    2d10:	e3530000 	cmp	r3, #0
    2d14:	1a000001 	bne	2d20 <bootsource_try_chain+0x38>
    2d18:	e28dd010 	add	sp, sp, #16
    2d1c:	e8bd81f0 	pop	{r4, r5, r6, r7, r8, pc}
    2d20:	e5943008 	ldr	r3, [r4, #8]
    2d24:	e1a02006 	mov	r2, r6
    2d28:	e58d300c 	str	r3, [sp, #12]
    2d2c:	e58d8000 	str	r8, [sp]
    2d30:	e1a03007 	mov	r3, r7
    2d34:	e1a01005 	mov	r1, r5
    2d38:	e1a00004 	mov	r0, r4
    2d3c:	ebffffd9 	bl	2ca8 <bootsource_try_single>
    2d40:	e3500000 	cmp	r0, #0
    2d44:	da000003 	ble	2d58 <bootsource_try_chain+0x70>
    2d48:	e2400001 	sub	r0, r0, #1
    2d4c:	ebfffed4 	bl	28a4 <find_source_by_id>
    2d50:	e1a04000 	mov	r4, r0
    2d54:	eaffffea 	b	2d04 <bootsource_try_chain+0x1c>
    2d58:	e370000b 	cmn	r0, #11
    2d5c:	0affffed 	beq	2d18 <bootsource_try_chain+0x30>
    2d60:	e2844028 	add	r4, r4, #40	; 0x28
    2d64:	eaffffe6 	b	2d04 <bootsource_try_chain+0x1c>

Disassembly of section .text.bootsource_try_by_id:

00002d68 <bootsource_try_by_id>:
    2d68:	e92d407f 	push	{r0, r1, r2, r3, r4, r5, r6, lr}
    2d6c:	e1a06003 	mov	r6, r3
    2d70:	e1a04001 	mov	r4, r1
    2d74:	e1a05002 	mov	r5, r2
    2d78:	ebfffec9 	bl	28a4 <find_source_by_id>
    2d7c:	e2503000 	subs	r3, r0, #0
    2d80:	03e00008 	mvneq	r0, #8
    2d84:	0a000007 	beq	2da8 <bootsource_try_by_id+0x40>
    2d88:	e5933008 	ldr	r3, [r3, #8]
    2d8c:	e28dc010 	add	ip, sp, #16
    2d90:	e1a02005 	mov	r2, r5
    2d94:	e52c3004 	str	r3, [ip, #-4]!
    2d98:	e1a01004 	mov	r1, r4
    2d9c:	e58dc000 	str	ip, [sp]
    2da0:	e1a03006 	mov	r3, r6
    2da4:	ebffff74 	bl	2b7c <bootsource_try_source_once>
    2da8:	e28dd010 	add	sp, sp, #16
    2dac:	e8bd8070 	pop	{r4, r5, r6, pc}

Disassembly of section .text.rumboot_strerror:

00002db0 <rumboot_strerror>:
    2db0:	e3500000 	cmp	r0, #0
    2db4:	b2600000 	rsblt	r0, r0, #0
    2db8:	e350000c 	cmp	r0, #12
    2dbc:	a3a0000c 	movge	r0, #12
    2dc0:	e59f3004 	ldr	r3, [pc, #4]	; 2dcc <rumboot_strerror+0x1c>
    2dc4:	e7930100 	ldr	r0, [r3, r0, lsl #2]
    2dc8:	e12fff1e 	bx	lr
    2dcc:	00004e84 	andeq	r4, r0, r4, lsl #29

Disassembly of section .text.rumboot_bootimage_check_header:

00002dd0 <rumboot_bootimage_check_header>:
    2dd0:	e5902000 	ldr	r2, [r0]
    2dd4:	e59f31c8 	ldr	r3, [pc, #456]	; 2fa4 <rumboot_bootimage_check_header+0x1d4>
    2dd8:	e1520003 	cmp	r2, r3
    2ddc:	1a000068 	bne	2f84 <rumboot_bootimage_check_header+0x1b4>
    2de0:	e92d4070 	push	{r4, r5, r6, lr}
    2de4:	e590303c 	ldr	r3, [r0, #60]	; 0x3c
    2de8:	e1a04000 	mov	r4, r0
    2dec:	e3530000 	cmp	r3, #0
    2df0:	e59f01b0 	ldr	r0, [pc, #432]	; 2fa8 <rumboot_bootimage_check_header+0x1d8>
    2df4:	15933000 	ldrne	r3, [r3]
    2df8:	059f31ac 	ldreq	r3, [pc, #428]	; 2fac <rumboot_bootimage_check_header+0x1dc>
    2dfc:	e1a05001 	mov	r5, r1
    2e00:	e1a01003 	mov	r1, r3
    2e04:	ebfffa38 	bl	16ec <rumboot_printf>
    2e08:	e594303c 	ldr	r3, [r4, #60]	; 0x3c
    2e0c:	e5942000 	ldr	r2, [r4]
    2e10:	e3530000 	cmp	r3, #0
    2e14:	e59f0194 	ldr	r0, [pc, #404]	; 2fb0 <rumboot_bootimage_check_header+0x1e0>
    2e18:	15931000 	ldrne	r1, [r3]
    2e1c:	059f1188 	ldreq	r1, [pc, #392]	; 2fac <rumboot_bootimage_check_header+0x1dc>
    2e20:	ebfffa31 	bl	16ec <rumboot_printf>
    2e24:	e594303c 	ldr	r3, [r4, #60]	; 0x3c
    2e28:	e5d42004 	ldrb	r2, [r4, #4]
    2e2c:	e3530000 	cmp	r3, #0
    2e30:	e59f017c 	ldr	r0, [pc, #380]	; 2fb4 <rumboot_bootimage_check_header+0x1e4>
    2e34:	15931000 	ldrne	r1, [r3]
    2e38:	059f116c 	ldreq	r1, [pc, #364]	; 2fac <rumboot_bootimage_check_header+0x1dc>
    2e3c:	ebfffa2a 	bl	16ec <rumboot_printf>
    2e40:	e5d43004 	ldrb	r3, [r4, #4]
    2e44:	e3530002 	cmp	r3, #2
    2e48:	1a00004f 	bne	2f8c <rumboot_bootimage_check_header+0x1bc>
    2e4c:	e594303c 	ldr	r3, [r4, #60]	; 0x3c
    2e50:	e5d42006 	ldrb	r2, [r4, #6]
    2e54:	e3530000 	cmp	r3, #0
    2e58:	e59f0158 	ldr	r0, [pc, #344]	; 2fb8 <rumboot_bootimage_check_header+0x1e8>
    2e5c:	15931000 	ldrne	r1, [r3]
    2e60:	059f1144 	ldreq	r1, [pc, #324]	; 2fac <rumboot_bootimage_check_header+0x1dc>
    2e64:	ebfffa20 	bl	16ec <rumboot_printf>
    2e68:	e594303c 	ldr	r3, [r4, #60]	; 0x3c
    2e6c:	e5d42007 	ldrb	r2, [r4, #7]
    2e70:	e3530000 	cmp	r3, #0
    2e74:	e59f0140 	ldr	r0, [pc, #320]	; 2fbc <rumboot_bootimage_check_header+0x1ec>
    2e78:	15931000 	ldrne	r1, [r3]
    2e7c:	059f1128 	ldreq	r1, [pc, #296]	; 2fac <rumboot_bootimage_check_header+0x1dc>
    2e80:	ebfffa19 	bl	16ec <rumboot_printf>
    2e84:	e594303c 	ldr	r3, [r4, #60]	; 0x3c
    2e88:	e594200c 	ldr	r2, [r4, #12]
    2e8c:	e3530000 	cmp	r3, #0
    2e90:	e59f0128 	ldr	r0, [pc, #296]	; 2fc0 <rumboot_bootimage_check_header+0x1f0>
    2e94:	15931000 	ldrne	r1, [r3]
    2e98:	059f110c 	ldreq	r1, [pc, #268]	; 2fac <rumboot_bootimage_check_header+0x1dc>
    2e9c:	ebfffa12 	bl	16ec <rumboot_printf>
    2ea0:	e594303c 	ldr	r3, [r4, #60]	; 0x3c
    2ea4:	e5942038 	ldr	r2, [r4, #56]	; 0x38
    2ea8:	e3530000 	cmp	r3, #0
    2eac:	e59f0110 	ldr	r0, [pc, #272]	; 2fc4 <rumboot_bootimage_check_header+0x1f4>
    2eb0:	15931000 	ldrne	r1, [r3]
    2eb4:	059f10f0 	ldreq	r1, [pc, #240]	; 2fac <rumboot_bootimage_check_header+0x1dc>
    2eb8:	ebfffa0b 	bl	16ec <rumboot_printf>
    2ebc:	e594303c 	ldr	r3, [r4, #60]	; 0x3c
    2ec0:	e5942008 	ldr	r2, [r4, #8]
    2ec4:	e3530000 	cmp	r3, #0
    2ec8:	e59f00f8 	ldr	r0, [pc, #248]	; 2fc8 <rumboot_bootimage_check_header+0x1f8>
    2ecc:	15931000 	ldrne	r1, [r3]
    2ed0:	059f10d4 	ldreq	r1, [pc, #212]	; 2fac <rumboot_bootimage_check_header+0x1dc>
    2ed4:	ebfffa04 	bl	16ec <rumboot_printf>
    2ed8:	e594303c 	ldr	r3, [r4, #60]	; 0x3c
    2edc:	e59f00e8 	ldr	r0, [pc, #232]	; 2fcc <rumboot_bootimage_check_header+0x1fc>
    2ee0:	e3530000 	cmp	r3, #0
    2ee4:	15931000 	ldrne	r1, [r3]
    2ee8:	059f10bc 	ldreq	r1, [pc, #188]	; 2fac <rumboot_bootimage_check_header+0x1dc>
    2eec:	ebfff9fe 	bl	16ec <rumboot_printf>
    2ef0:	e5d43006 	ldrb	r3, [r4, #6]
    2ef4:	e3530003 	cmp	r3, #3
    2ef8:	1a000025 	bne	2f94 <rumboot_bootimage_check_header+0x1c4>
    2efc:	e5d43007 	ldrb	r3, [r4, #7]
    2f00:	e3530001 	cmp	r3, #1
    2f04:	0a000006 	beq	2f24 <rumboot_bootimage_check_header+0x154>
    2f08:	e594203c 	ldr	r2, [r4, #60]	; 0x3c
    2f0c:	e59f00bc 	ldr	r0, [pc, #188]	; 2fd0 <rumboot_bootimage_check_header+0x200>
    2f10:	e3520000 	cmp	r2, #0
    2f14:	15921000 	ldrne	r1, [r2]
    2f18:	059f108c 	ldreq	r1, [pc, #140]	; 2fac <rumboot_bootimage_check_header+0x1dc>
    2f1c:	e3a02001 	mov	r2, #1
    2f20:	ebfff9f1 	bl	16ec <rumboot_printf>
    2f24:	e3a02038 	mov	r2, #56	; 0x38
    2f28:	e1a01004 	mov	r1, r4
    2f2c:	e3a00000 	mov	r0, #0
    2f30:	ebfff7e1 	bl	ebc <crc32>
    2f34:	e5942038 	ldr	r2, [r4, #56]	; 0x38
    2f38:	e1500002 	cmp	r0, r2
    2f3c:	e1a03000 	mov	r3, r0
    2f40:	0a000007 	beq	2f64 <rumboot_bootimage_check_header+0x194>
    2f44:	e594103c 	ldr	r1, [r4, #60]	; 0x3c
    2f48:	e59f0084 	ldr	r0, [pc, #132]	; 2fd4 <rumboot_bootimage_check_header+0x204>
    2f4c:	e3510000 	cmp	r1, #0
    2f50:	15911000 	ldrne	r1, [r1]
    2f54:	059f1050 	ldreq	r1, [pc, #80]	; 2fac <rumboot_bootimage_check_header+0x1dc>
    2f58:	ebfff9e3 	bl	16ec <rumboot_printf>
    2f5c:	e3e00002 	mvn	r0, #2
    2f60:	e8bd8070 	pop	{r4, r5, r6, pc}
    2f64:	e1a00004 	mov	r0, r4
    2f68:	ebfff729 	bl	c14 <rumboot_platform_check_entry_points>
    2f6c:	e3500000 	cmp	r0, #0
    2f70:	0a000009 	beq	2f9c <rumboot_bootimage_check_header+0x1cc>
    2f74:	e2843040 	add	r3, r4, #64	; 0x40
    2f78:	e5853000 	str	r3, [r5]
    2f7c:	e594000c 	ldr	r0, [r4, #12]
    2f80:	e8bd8070 	pop	{r4, r5, r6, pc}
    2f84:	e3e00000 	mvn	r0, #0
    2f88:	e12fff1e 	bx	lr
    2f8c:	e3e00001 	mvn	r0, #1
    2f90:	e8bd8070 	pop	{r4, r5, r6, pc}
    2f94:	e3e00003 	mvn	r0, #3
    2f98:	e8bd8070 	pop	{r4, r5, r6, pc}
    2f9c:	e3e00004 	mvn	r0, #4
    2fa0:	e8bd8070 	pop	{r4, r5, r6, pc}
    2fa4:	b01dface 	andslt	pc, sp, lr, asr #21
    2fa8:	00004efb 	strdeq	r4, [r0], -fp
    2fac:	00004ef6 	strdeq	r4, [r0], -r6
    2fb0:	00004f20 	andeq	r4, r0, r0, lsr #30
    2fb4:	00004f42 	andeq	r4, r0, r2, asr #30
    2fb8:	00004f62 	andeq	r4, r0, r2, ror #30
    2fbc:	00004f82 	andeq	r4, r0, r2, lsl #31
    2fc0:	00004fa2 	andeq	r4, r0, r2, lsr #31
    2fc4:	00004fc2 	andeq	r4, r0, r2, asr #31
    2fc8:	00004fe4 	andeq	r4, r0, r4, ror #31
    2fcc:	00005006 	andeq	r5, r0, r6
    2fd0:	0000502b 	andeq	r5, r0, fp, lsr #32
    2fd4:	0000506d 	andeq	r5, r0, sp, rrx

Disassembly of section .text.rumboot_bootimage_check_data:

00002fd8 <rumboot_bootimage_check_data>:
    2fd8:	e590200c 	ldr	r2, [r0, #12]
    2fdc:	e3520000 	cmp	r2, #0
    2fe0:	0a000010 	beq	3028 <rumboot_bootimage_check_data+0x50>
    2fe4:	e92d4010 	push	{r4, lr}
    2fe8:	e2801040 	add	r1, r0, #64	; 0x40
    2fec:	e1a04000 	mov	r4, r0
    2ff0:	e3a00000 	mov	r0, #0
    2ff4:	ebfff7b0 	bl	ebc <crc32>
    2ff8:	e5942008 	ldr	r2, [r4, #8]
    2ffc:	e1500002 	cmp	r0, r2
    3000:	e1a03000 	mov	r3, r0
    3004:	0a000009 	beq	3030 <rumboot_bootimage_check_data+0x58>
    3008:	e594103c 	ldr	r1, [r4, #60]	; 0x3c
    300c:	e59f0024 	ldr	r0, [pc, #36]	; 3038 <rumboot_bootimage_check_data+0x60>
    3010:	e3510000 	cmp	r1, #0
    3014:	15911000 	ldrne	r1, [r1]
    3018:	059f101c 	ldreq	r1, [pc, #28]	; 303c <rumboot_bootimage_check_data+0x64>
    301c:	ebfff9b2 	bl	16ec <rumboot_printf>
    3020:	e3e00006 	mvn	r0, #6
    3024:	e8bd8010 	pop	{r4, pc}
    3028:	e3e00006 	mvn	r0, #6
    302c:	e12fff1e 	bx	lr
    3030:	e3a00000 	mov	r0, #0
    3034:	e8bd8010 	pop	{r4, pc}
    3038:	00004eb8 			; <UNDEFINED> instruction: 0x00004eb8
    303c:	00004ef6 	strdeq	r4, [r0], -r6

Disassembly of section .text.rumboot_bootimage_execute_ep:

00003040 <rumboot_bootimage_execute_ep>:
    3040:	e12fff10 	bx	r0

Disassembly of section .text.muart_init:

00003044 <muart_init>:
    3044:	e5903030 	ldr	r3, [r0, #48]	; 0x30
    3048:	e92d4010 	push	{r4, lr}
    304c:	e5d13002 	ldrb	r3, [r1, #2]
    3050:	e5d12001 	ldrb	r2, [r1, #1]
    3054:	e1a03503 	lsl	r3, r3, #10
    3058:	e1833602 	orr	r3, r3, r2, lsl #12
    305c:	e5d12003 	ldrb	r2, [r1, #3]
    3060:	e1a04000 	mov	r4, r0
    3064:	e3520000 	cmp	r2, #0
    3068:	e5d12006 	ldrb	r2, [r1, #6]
    306c:	13833c01 	orrne	r3, r3, #256	; 0x100
    3070:	e3520000 	cmp	r2, #0
    3074:	e5d12004 	ldrb	r2, [r1, #4]
    3078:	13833002 	orrne	r3, r3, #2
    307c:	e3520000 	cmp	r2, #0
    3080:	e5d12005 	ldrb	r2, [r1, #5]
    3084:	13833080 	orrne	r3, r3, #128	; 0x80
    3088:	e3520000 	cmp	r2, #0
    308c:	03833030 	orreq	r3, r3, #48	; 0x30
    3090:	0a000001 	beq	309c <muart_init+0x58>
    3094:	e3520001 	cmp	r2, #1
    3098:	03833018 	orreq	r3, r3, #24
    309c:	e5d1200c 	ldrb	r2, [r1, #12]
    30a0:	e59f0020 	ldr	r0, [pc, #32]	; 30c8 <muart_init+0x84>
    30a4:	e3520000 	cmp	r2, #0
    30a8:	13c33004 	bicne	r3, r3, #4
    30ac:	13833902 	orrne	r3, r3, #32768	; 0x8000
    30b0:	03833004 	orreq	r3, r3, #4
    30b4:	e5843044 	str	r3, [r4, #68]	; 0x44
    30b8:	e5911008 	ldr	r1, [r1, #8]
    30bc:	ebfff44e 	bl	1fc <__udivsi3>
    30c0:	e5840030 	str	r0, [r4, #48]	; 0x30
    30c4:	e8bd8010 	pop	{r4, pc}
    30c8:	02faf080 	rscseq	pc, sl, #128	; 0x80

Disassembly of section .text.muart_enable:

000030cc <muart_enable>:
    30cc:	e5903044 	ldr	r3, [r0, #68]	; 0x44
    30d0:	e3833001 	orr	r3, r3, #1
    30d4:	e5803044 	str	r3, [r0, #68]	; 0x44
    30d8:	e12fff1e 	bx	lr

Disassembly of section .text.muart_write_char:

000030dc <muart_write_char>:
    30dc:	e59fc018 	ldr	ip, [pc, #24]	; 30fc <muart_write_char+0x20>
    30e0:	e59f2018 	ldr	r2, [pc, #24]	; 3100 <muart_write_char+0x24>
    30e4:	e5903014 	ldr	r3, [r0, #20]
    30e8:	e003300c 	and	r3, r3, ip
    30ec:	e1530002 	cmp	r3, r2
    30f0:	8afffffb 	bhi	30e4 <muart_write_char+0x8>
    30f4:	e5801020 	str	r1, [r0, #32]
    30f8:	e12fff1e 	bx	lr
    30fc:	07ff0000 	ldrbeq	r0, [pc, r0]!
    3100:	03feffff 	mvnseq	pc, #1020	; 0x3fc

Disassembly of section .text.pl022_set_speed:

00003104 <pl022_set_speed>:
    3104:	e92d4ff7 	push	{r0, r1, r2, r4, r5, r6, r7, r8, r9, sl, fp, lr}
    3108:	e5919000 	ldr	r9, [r1]
    310c:	e5917004 	ldr	r7, [r1, #4]
    3110:	e1a010a9 	lsr	r1, r9, #1
    3114:	e1a0a4a9 	lsr	sl, r9, #9
    3118:	e59f310c 	ldr	r3, [pc, #268]	; 322c <pl022_set_speed+0x128>
    311c:	e1570001 	cmp	r7, r1
    3120:	e1a05000 	mov	r5, r0
    3124:	e08ba39a 	umull	sl, fp, sl, r3
    3128:	9a000002 	bls	3138 <pl022_set_speed+0x34>
    312c:	e1a02007 	mov	r2, r7
    3130:	e59f00f8 	ldr	r0, [pc, #248]	; 3230 <pl022_set_speed+0x12c>
    3134:	ebfff96c 	bl	16ec <rumboot_printf>
    3138:	e157000b 	cmp	r7, fp
    313c:	3a000019 	bcc	31a8 <pl022_set_speed+0xa4>
    3140:	e3a03000 	mov	r3, #0
    3144:	e1a04003 	mov	r4, r3
    3148:	e1a08003 	mov	r8, r3
    314c:	e1a0a003 	mov	sl, r3
    3150:	e3a06002 	mov	r6, #2
    3154:	e2233001 	eor	r3, r3, #1
    3158:	e35600fe 	cmp	r6, #254	; 0xfe
    315c:	83a03000 	movhi	r3, #0
    3160:	92033001 	andls	r3, r3, #1
    3164:	e3530000 	cmp	r3, #0
    3168:	0a000020 	beq	31f0 <pl022_set_speed+0xec>
    316c:	e1a03006 	mov	r3, r6
    3170:	e3a0b000 	mov	fp, #0
    3174:	e1a01003 	mov	r1, r3
    3178:	e1a00009 	mov	r0, r9
    317c:	e58d3004 	str	r3, [sp, #4]
    3180:	ebfff41d 	bl	1fc <__udivsi3>
    3184:	e1570000 	cmp	r7, r0
    3188:	2a00000d 	bcs	31c4 <pl022_set_speed+0xc0>
    318c:	e28bb001 	add	fp, fp, #1
    3190:	e59d3004 	ldr	r3, [sp, #4]
    3194:	e35b0c01 	cmp	fp, #256	; 0x100
    3198:	e0833006 	add	r3, r3, r6
    319c:	1afffff4 	bne	3174 <pl022_set_speed+0x70>
    31a0:	e3a03000 	mov	r3, #0
    31a4:	ea00000e 	b	31e4 <pl022_set_speed+0xe0>
    31a8:	e59f0084 	ldr	r0, [pc, #132]	; 3234 <pl022_set_speed+0x130>
    31ac:	e1a0200b 	mov	r2, fp
    31b0:	e1a01007 	mov	r1, r7
    31b4:	ebfff94c 	bl	16ec <rumboot_printf>
    31b8:	e3e00000 	mvn	r0, #0
    31bc:	e28dd00c 	add	sp, sp, #12
    31c0:	e8bd8ff0 	pop	{r4, r5, r6, r7, r8, r9, sl, fp, pc}
    31c4:	e15a0000 	cmp	sl, r0
    31c8:	2afffff4 	bcs	31a0 <pl022_set_speed+0x9c>
    31cc:	e0473000 	sub	r3, r7, r0
    31d0:	e16f3f13 	clz	r3, r3
    31d4:	e6ff407b 	uxth	r4, fp
    31d8:	e1a032a3 	lsr	r3, r3, #5
    31dc:	e1a08006 	mov	r8, r6
    31e0:	e1a0a000 	mov	sl, r0
    31e4:	e2866002 	add	r6, r6, #2
    31e8:	e6ff6076 	uxth	r6, r6
    31ec:	eaffffd8 	b	3154 <pl022_set_speed+0x50>
    31f0:	e35a0000 	cmp	sl, #0
    31f4:	1a000002 	bne	3204 <pl022_set_speed+0x100>
    31f8:	e1a01007 	mov	r1, r7
    31fc:	e59f0034 	ldr	r0, [pc, #52]	; 3238 <pl022_set_speed+0x134>
    3200:	ebfff939 	bl	16ec <rumboot_printf>
    3204:	e6ef8078 	uxtb	r8, r8
    3208:	e1a04404 	lsl	r4, r4, #8
    320c:	e5858010 	str	r8, [r5, #16]
    3210:	e5953000 	ldr	r3, [r5]
    3214:	e6ff4074 	uxth	r4, r4
    3218:	e3c33cff 	bic	r3, r3, #65280	; 0xff00
    321c:	e1844003 	orr	r4, r4, r3
    3220:	e3a00000 	mov	r0, #0
    3224:	e5854000 	str	r4, [r5]
    3228:	eaffffe3 	b	31bc <pl022_set_speed+0xb8>
    322c:	02040814 	andeq	r0, r4, #20, 16	; 0x140000
    3230:	000050ad 	andeq	r5, r0, sp, lsr #1
    3234:	000050f1 	strdeq	r5, [r0], -r1
    3238:	00005138 	andeq	r5, r0, r8, lsr r1

Disassembly of section .text.pl022_init:

0000323c <pl022_init>:
    323c:	e92d4070 	push	{r4, r5, r6, lr}
    3240:	e1a04000 	mov	r4, r0
    3244:	e1a05001 	mov	r5, r1
    3248:	ebffffad 	bl	3104 <pl022_set_speed>
    324c:	e5943000 	ldr	r3, [r4]
    3250:	e3c3200f 	bic	r2, r3, #15
    3254:	e5953008 	ldr	r3, [r5, #8]
    3258:	e2433001 	sub	r3, r3, #1
    325c:	e203300f 	and	r3, r3, #15
    3260:	e1833002 	orr	r3, r3, r2
    3264:	e5843000 	str	r3, [r4]
    3268:	e3a0300a 	mov	r3, #10
    326c:	e5843004 	str	r3, [r4, #4]
    3270:	e595200c 	ldr	r2, [r5, #12]
    3274:	e59430cc 	ldr	r3, [r4, #204]	; 0xcc
    3278:	e3520000 	cmp	r2, #0
    327c:	13833002 	orrne	r3, r3, #2
    3280:	03c33002 	biceq	r3, r3, #2
    3284:	e58430cc 	str	r3, [r4, #204]	; 0xcc
    3288:	e8bd8070 	pop	{r4, r5, r6, pc}

Disassembly of section .text.pl022_internal_cs:

0000328c <pl022_internal_cs>:
    328c:	e59030cc 	ldr	r3, [r0, #204]	; 0xcc
    3290:	e3510000 	cmp	r1, #0
    3294:	13833001 	orrne	r3, r3, #1
    3298:	03c33001 	biceq	r3, r3, #1
    329c:	e58030cc 	str	r3, [r0, #204]	; 0xcc
    32a0:	e12fff1e 	bx	lr

Disassembly of section .text.pl022_tx_avail:

000032a4 <pl022_tx_avail>:
    32a4:	e590000c 	ldr	r0, [r0, #12]
    32a8:	e7e000d0 	ubfx	r0, r0, #1, #1
    32ac:	e12fff1e 	bx	lr

Disassembly of section .text.pl022_rx_empty:

000032b0 <pl022_rx_empty>:
    32b0:	e590000c 	ldr	r0, [r0, #12]
    32b4:	e2200004 	eor	r0, r0, #4
    32b8:	e7e00150 	ubfx	r0, r0, #2, #1
    32bc:	e12fff1e 	bx	lr

Disassembly of section .text.pl022_xfer_timeout:

000032c0 <pl022_xfer_timeout>:
    32c0:	e92d4ff8 	push	{r3, r4, r5, r6, r7, r8, r9, sl, fp, lr}
    32c4:	e1a07000 	mov	r7, r0
    32c8:	e1a08001 	mov	r8, r1
    32cc:	e1a09002 	mov	r9, r2
    32d0:	e1a05003 	mov	r5, r3
    32d4:	e59db028 	ldr	fp, [sp, #40]	; 0x28
    32d8:	ebfff5b0 	bl	9a0 <rumboot_platform_get_uptime>
    32dc:	e3a04000 	mov	r4, #0
    32e0:	e1a06004 	mov	r6, r4
    32e4:	e1a0a000 	mov	sl, r0
    32e8:	e1550006 	cmp	r5, r6
    32ec:	93a03000 	movls	r3, #0
    32f0:	83a03001 	movhi	r3, #1
    32f4:	e1540005 	cmp	r4, r5
    32f8:	33833001 	orrcc	r3, r3, #1
    32fc:	e3530000 	cmp	r3, #0
    3300:	1a000001 	bne	330c <pl022_xfer_timeout+0x4c>
    3304:	e1a00004 	mov	r0, r4
    3308:	e8bd8ff8 	pop	{r3, r4, r5, r6, r7, r8, r9, sl, fp, pc}
    330c:	e1540005 	cmp	r4, r5
    3310:	2a00000d 	bcs	334c <pl022_xfer_timeout+0x8c>
    3314:	e1a00007 	mov	r0, r7
    3318:	ebffffe4 	bl	32b0 <pl022_rx_empty>
    331c:	e3500000 	cmp	r0, #0
    3320:	1a000007 	bne	3344 <pl022_xfer_timeout+0x84>
    3324:	e5973008 	ldr	r3, [r7, #8]
    3328:	e3590000 	cmp	r9, #0
    332c:	e6ef3073 	uxtb	r3, r3
    3330:	e2844001 	add	r4, r4, #1
    3334:	15c93000 	strbne	r3, [r9]
    3338:	12899001 	addne	r9, r9, #1
    333c:	ebfff597 	bl	9a0 <rumboot_platform_get_uptime>
    3340:	e1a0a000 	mov	sl, r0
    3344:	e1550006 	cmp	r5, r6
    3348:	9a00000b 	bls	337c <pl022_xfer_timeout+0xbc>
    334c:	e1a00007 	mov	r0, r7
    3350:	ebffffd3 	bl	32a4 <pl022_tx_avail>
    3354:	e3500000 	cmp	r0, #0
    3358:	0a000007 	beq	337c <pl022_xfer_timeout+0xbc>
    335c:	e3580000 	cmp	r8, #0
    3360:	03a030ff 	moveq	r3, #255	; 0xff
    3364:	15d83000 	ldrbne	r3, [r8]
    3368:	12888001 	addne	r8, r8, #1
    336c:	e5873008 	str	r3, [r7, #8]
    3370:	ebfff58a 	bl	9a0 <rumboot_platform_get_uptime>
    3374:	e2866001 	add	r6, r6, #1
    3378:	e1a0a000 	mov	sl, r0
    337c:	e35b0000 	cmp	fp, #0
    3380:	0affffd8 	beq	32e8 <pl022_xfer_timeout+0x28>
    3384:	ebfff585 	bl	9a0 <rumboot_platform_get_uptime>
    3388:	e040000a 	sub	r0, r0, sl
    338c:	e15b0000 	cmp	fp, r0
    3390:	2affffd4 	bcs	32e8 <pl022_xfer_timeout+0x28>
    3394:	e3e04000 	mvn	r4, #0
    3398:	eaffffd9 	b	3304 <pl022_xfer_timeout+0x44>

Disassembly of section .text.rumboot_malloc_register_heap:

0000339c <rumboot_malloc_register_heap>:
    339c:	e1510002 	cmp	r1, r2
    33a0:	0a000019 	beq	340c <rumboot_malloc_register_heap+0x70>
    33a4:	e92d4070 	push	{r4, r5, r6, lr}
    33a8:	e3a03000 	mov	r3, #0
    33ac:	e59fe064 	ldr	lr, [pc, #100]	; 3418 <rumboot_malloc_register_heap+0x7c>
    33b0:	e3a05014 	mov	r5, #20
    33b4:	e02ce395 	mla	ip, r5, r3, lr
    33b8:	e28c4078 	add	r4, ip, #120	; 0x78
    33bc:	e5946004 	ldr	r6, [r4, #4]
    33c0:	e3560000 	cmp	r6, #0
    33c4:	0a000006 	beq	33e4 <rumboot_malloc_register_heap+0x48>
    33c8:	e2833001 	add	r3, r3, #1
    33cc:	e3530008 	cmp	r3, #8
    33d0:	1afffff7 	bne	33b4 <rumboot_malloc_register_heap+0x18>
    33d4:	e1a01000 	mov	r1, r0
    33d8:	e1a02003 	mov	r2, r3
    33dc:	e59f0038 	ldr	r0, [pc, #56]	; 341c <rumboot_malloc_register_heap+0x80>
    33e0:	eb0000d7 	bl	3744 <rumboot_platform_panic>
    33e4:	e58c008c 	str	r0, [ip, #140]	; 0x8c
    33e8:	e5841004 	str	r1, [r4, #4]
    33ec:	e58c1084 	str	r1, [ip, #132]	; 0x84
    33f0:	e58c1088 	str	r1, [ip, #136]	; 0x88
    33f4:	e5842008 	str	r2, [r4, #8]
    33f8:	e59e2078 	ldr	r2, [lr, #120]	; 0x78
    33fc:	e1a00003 	mov	r0, r3
    3400:	e2822001 	add	r2, r2, #1
    3404:	e58e2078 	str	r2, [lr, #120]	; 0x78
    3408:	e8bd8070 	pop	{r4, r5, r6, pc}
    340c:	e3e03000 	mvn	r3, #0
    3410:	e1a00003 	mov	r0, r3
    3414:	e12fff1e 	bx	lr
    3418:	0007f000 	andeq	pc, r7, r0
    341c:	00005173 	andeq	r5, r0, r3, ror r1

Disassembly of section .text.rumboot_malloc_update_heaps:

00003420 <rumboot_malloc_update_heaps>:
    3420:	e59f2038 	ldr	r2, [pc, #56]	; 3460 <rumboot_malloc_update_heaps+0x40>
    3424:	e92d4010 	push	{r4, lr}
    3428:	e3a03000 	mov	r3, #0
    342c:	e592e078 	ldr	lr, [r2, #120]	; 0x78
    3430:	e3a0c014 	mov	ip, #20
    3434:	e153000e 	cmp	r3, lr
    3438:	ba000000 	blt	3440 <rumboot_malloc_update_heaps+0x20>
    343c:	e8bd8010 	pop	{r4, pc}
    3440:	e021239c 	mla	r1, ip, r3, r2
    3444:	e3500000 	cmp	r0, #0
    3448:	e2833001 	add	r3, r3, #1
    344c:	15914084 	ldrne	r4, [r1, #132]	; 0x84
    3450:	05914088 	ldreq	r4, [r1, #136]	; 0x88
    3454:	15814088 	strne	r4, [r1, #136]	; 0x88
    3458:	05814084 	streq	r4, [r1, #132]	; 0x84
    345c:	eafffff4 	b	3434 <rumboot_malloc_update_heaps+0x14>
    3460:	0007f000 	andeq	pc, r7, r0

Disassembly of section .text.crc_xmodem_update:

00003464 <crc_xmodem_update>:
    3464:	e0200401 	eor	r0, r0, r1, lsl #8
    3468:	e3a03008 	mov	r3, #8
    346c:	e3012021 	movw	r2, #4129	; 0x1021
    3470:	e3100902 	tst	r0, #32768	; 0x8000
    3474:	e1a00080 	lsl	r0, r0, #1
    3478:	10200002 	eorne	r0, r0, r2
    347c:	e2533001 	subs	r3, r3, #1
    3480:	e6ff0070 	uxth	r0, r0
    3484:	1afffff9 	bne	3470 <crc_xmodem_update+0xc>
    3488:	e12fff1e 	bx	lr

Disassembly of section .text.xmodem_chksum:

0000348c <xmodem_chksum>:
    348c:	e2503000 	subs	r3, r0, #0
    3490:	e92d4070 	push	{r4, r5, r6, lr}
    3494:	e1a05001 	mov	r5, r1
    3498:	0a000011 	beq	34e4 <xmodem_chksum+0x58>
    349c:	e0856002 	add	r6, r5, r2
    34a0:	e7d54002 	ldrb	r4, [r5, r2]
    34a4:	e5d60001 	ldrb	r0, [r6, #1]
    34a8:	e0800404 	add	r0, r0, r4, lsl #8
    34ac:	e6ff4070 	uxth	r4, r0
    34b0:	e3a00000 	mov	r0, #0
    34b4:	e1560005 	cmp	r6, r5
    34b8:	1a000003 	bne	34cc <xmodem_chksum+0x40>
    34bc:	e1540000 	cmp	r4, r0
    34c0:	13a00000 	movne	r0, #0
    34c4:	03a00001 	moveq	r0, #1
    34c8:	e8bd8070 	pop	{r4, r5, r6, pc}
    34cc:	e4d51001 	ldrb	r1, [r5], #1
    34d0:	ebffffe3 	bl	3464 <crc_xmodem_update>
    34d4:	eafffff6 	b	34b4 <xmodem_chksum+0x28>
    34d8:	e4d10001 	ldrb	r0, [r1], #1
    34dc:	e0830000 	add	r0, r3, r0
    34e0:	e6ef3070 	uxtb	r3, r0
    34e4:	e0410005 	sub	r0, r1, r5
    34e8:	e1520000 	cmp	r2, r0
    34ec:	cafffff9 	bgt	34d8 <xmodem_chksum+0x4c>
    34f0:	e7d50002 	ldrb	r0, [r5, r2]
    34f4:	e1500003 	cmp	r0, r3
    34f8:	eafffff0 	b	34c0 <xmodem_chksum+0x34>

Disassembly of section .text.xmodem_flush_input:

000034fc <xmodem_flush_input>:
    34fc:	e92d4010 	push	{r4, lr}
    3500:	e59f4010 	ldr	r4, [pc, #16]	; 3518 <xmodem_flush_input+0x1c>
    3504:	e1a00004 	mov	r0, r4
    3508:	ebfff5d2 	bl	c58 <rumboot_platform_getchar>
    350c:	e3500000 	cmp	r0, #0
    3510:	aafffffb 	bge	3504 <xmodem_flush_input+0x8>
    3514:	e8bd8010 	pop	{r4, pc}
    3518:	000f4240 	andeq	r4, pc, r0, asr #4

Disassembly of section .text.xmodem_get:

0000351c <xmodem_get>:
    351c:	e92d4ff0 	push	{r4, r5, r6, r7, r8, r9, sl, fp, lr}
    3520:	e24dde41 	sub	sp, sp, #1040	; 0x410
    3524:	e24dd004 	sub	sp, sp, #4
    3528:	e3a05000 	mov	r5, #0
    352c:	e1a08005 	mov	r8, r5
    3530:	e3a04040 	mov	r4, #64	; 0x40
    3534:	e3a0b043 	mov	fp, #67	; 0x43
    3538:	e3a06080 	mov	r6, #128	; 0x80
    353c:	e3a07001 	mov	r7, #1
    3540:	e59f91b8 	ldr	r9, [pc, #440]	; 3700 <xmodem_get+0x1e4>
    3544:	e28da00b 	add	sl, sp, #11
    3548:	e58d0000 	str	r0, [sp]
    354c:	e1a0000b 	mov	r0, fp
    3550:	ebfff5b4 	bl	c28 <rumboot_platform_putchar>
    3554:	e1a00009 	mov	r0, r9
    3558:	ebfff5be 	bl	c58 <rumboot_platform_getchar>
    355c:	e3500000 	cmp	r0, #0
    3560:	ba00003b 	blt	3654 <xmodem_get+0x138>
    3564:	e3500002 	cmp	r0, #2
    3568:	0a000046 	beq	3688 <xmodem_get+0x16c>
    356c:	ca000024 	bgt	3604 <xmodem_get+0xe8>
    3570:	e3500001 	cmp	r0, #1
    3574:	03a06080 	moveq	r6, #128	; 0x80
    3578:	e35b0043 	cmp	fp, #67	; 0x43
    357c:	03a08001 	moveq	r8, #1
    3580:	e0862008 	add	r2, r6, r8
    3584:	e3a03000 	mov	r3, #0
    3588:	e282b002 	add	fp, r2, #2
    358c:	e5cd0008 	strb	r0, [sp, #8]
    3590:	e153000b 	cmp	r3, fp
    3594:	da00003d 	ble	3690 <xmodem_get+0x174>
    3598:	e5dd200a 	ldrb	r2, [sp, #10]
    359c:	e5dd3009 	ldrb	r3, [sp, #9]
    35a0:	e1e02002 	mvn	r2, r2
    35a4:	e6ef2072 	uxtb	r2, r2
    35a8:	e1530002 	cmp	r3, r2
    35ac:	1a00004e 	bne	36ec <xmodem_get+0x1d0>
    35b0:	e1a02006 	mov	r2, r6
    35b4:	e1a0100a 	mov	r1, sl
    35b8:	e1a00008 	mov	r0, r8
    35bc:	e58d3004 	str	r3, [sp, #4]
    35c0:	ebffffb1 	bl	348c <xmodem_chksum>
    35c4:	e3500000 	cmp	r0, #0
    35c8:	0a000047 	beq	36ec <xmodem_get+0x1d0>
    35cc:	e59d3004 	ldr	r3, [sp, #4]
    35d0:	e1530007 	cmp	r3, r7
    35d4:	1a000037 	bne	36b8 <xmodem_get+0x19c>
    35d8:	e59d3000 	ldr	r3, [sp]
    35dc:	e1a02006 	mov	r2, r6
    35e0:	e0830005 	add	r0, r3, r5
    35e4:	e1a0100a 	mov	r1, sl
    35e8:	e2877001 	add	r7, r7, #1
    35ec:	eb0000eb 	bl	39a0 <memcpy>
    35f0:	e0865005 	add	r5, r6, r5
    35f4:	e6ef7077 	uxtb	r7, r7
    35f8:	e3a04040 	mov	r4, #64	; 0x40
    35fc:	e3a0b006 	mov	fp, #6
    3600:	eaffffd1 	b	354c <xmodem_get+0x30>
    3604:	e3500004 	cmp	r0, #4
    3608:	0a00000a 	beq	3638 <xmodem_get+0x11c>
    360c:	e3500018 	cmp	r0, #24
    3610:	1affffd8 	bne	3578 <xmodem_get+0x5c>
    3614:	e1a00009 	mov	r0, r9
    3618:	ebfff58e 	bl	c58 <rumboot_platform_getchar>
    361c:	e3500018 	cmp	r0, #24
    3620:	1affffd4 	bne	3578 <xmodem_get+0x5c>
    3624:	ebffffb4 	bl	34fc <xmodem_flush_input>
    3628:	e3a00006 	mov	r0, #6
    362c:	ebfff57d 	bl	c28 <rumboot_platform_putchar>
    3630:	e3e00000 	mvn	r0, #0
    3634:	ea000003 	b	3648 <xmodem_get+0x12c>
    3638:	ebffffaf 	bl	34fc <xmodem_flush_input>
    363c:	e3a00006 	mov	r0, #6
    3640:	ebfff578 	bl	c28 <rumboot_platform_putchar>
    3644:	e1a00005 	mov	r0, r5
    3648:	e28dde41 	add	sp, sp, #1040	; 0x410
    364c:	e28dd004 	add	sp, sp, #4
    3650:	e8bd8ff0 	pop	{r4, r5, r6, r7, r8, r9, sl, fp, pc}
    3654:	e2444001 	sub	r4, r4, #1
    3658:	e6ef4074 	uxtb	r4, r4
    365c:	e3540000 	cmp	r4, #0
    3660:	1affffb9 	bne	354c <xmodem_get+0x30>
    3664:	ebffffa4 	bl	34fc <xmodem_flush_input>
    3668:	e3a00018 	mov	r0, #24
    366c:	ebfff56d 	bl	c28 <rumboot_platform_putchar>
    3670:	e3a00018 	mov	r0, #24
    3674:	ebfff56b 	bl	c28 <rumboot_platform_putchar>
    3678:	e3a00018 	mov	r0, #24
    367c:	ebfff569 	bl	c28 <rumboot_platform_putchar>
    3680:	e3e00002 	mvn	r0, #2
    3684:	eaffffef 	b	3648 <xmodem_get+0x12c>
    3688:	e3a06b01 	mov	r6, #1024	; 0x400
    368c:	eaffffb9 	b	3578 <xmodem_get+0x5c>
    3690:	e1a00009 	mov	r0, r9
    3694:	e58d3004 	str	r3, [sp, #4]
    3698:	ebfff56e 	bl	c58 <rumboot_platform_getchar>
    369c:	e3500000 	cmp	r0, #0
    36a0:	ba000011 	blt	36ec <xmodem_get+0x1d0>
    36a4:	e59d3004 	ldr	r3, [sp, #4]
    36a8:	e28d2008 	add	r2, sp, #8
    36ac:	e2833001 	add	r3, r3, #1
    36b0:	e7c20003 	strb	r0, [r2, r3]
    36b4:	eaffffb5 	b	3590 <xmodem_get+0x74>
    36b8:	e2472001 	sub	r2, r7, #1
    36bc:	e6ef2072 	uxtb	r2, r2
    36c0:	e1530002 	cmp	r3, r2
    36c4:	0affffcc 	beq	35fc <xmodem_get+0xe0>
    36c8:	ebffff8b 	bl	34fc <xmodem_flush_input>
    36cc:	e3a00018 	mov	r0, #24
    36d0:	ebfff554 	bl	c28 <rumboot_platform_putchar>
    36d4:	e3a00018 	mov	r0, #24
    36d8:	ebfff552 	bl	c28 <rumboot_platform_putchar>
    36dc:	e3a00018 	mov	r0, #24
    36e0:	ebfff550 	bl	c28 <rumboot_platform_putchar>
    36e4:	e3e00001 	mvn	r0, #1
    36e8:	eaffffd6 	b	3648 <xmodem_get+0x12c>
    36ec:	e2444001 	sub	r4, r4, #1
    36f0:	ebffff81 	bl	34fc <xmodem_flush_input>
    36f4:	e3a0b015 	mov	fp, #21
    36f8:	e6ef4074 	uxtb	r4, r4
    36fc:	eaffffd6 	b	365c <xmodem_get+0x140>
    3700:	000f4240 	andeq	r4, pc, r0, asr #4

Disassembly of section .text.rumboot_platform_perf:

00003704 <rumboot_platform_perf>:
    3704:	e92d4007 	push	{r0, r1, r2, lr}
    3708:	e28d1008 	add	r1, sp, #8
    370c:	e3a02001 	mov	r2, #1
    3710:	e5210004 	str	r0, [r1, #-4]!
    3714:	e3a00007 	mov	r0, #7
    3718:	eb00001e 	bl	3798 <rumboot_platform_event_raise>
    371c:	e28dd00c 	add	sp, sp, #12
    3720:	e49df004 	pop	{pc}		; (ldr pc, [sp], #4)

Disassembly of section .text.rumboot_platform_sv_event:

00003724 <rumboot_platform_sv_event>:
    3724:	e92d4007 	push	{r0, r1, r2, lr}
    3728:	e28d1008 	add	r1, sp, #8
    372c:	e3a02001 	mov	r2, #1
    3730:	e5210004 	str	r0, [r1, #-4]!
    3734:	e3a00015 	mov	r0, #21
    3738:	eb000016 	bl	3798 <rumboot_platform_event_raise>
    373c:	e28dd00c 	add	sp, sp, #12
    3740:	e49df004 	pop	{pc}		; (ldr pc, [sp], #4)

Disassembly of section .text.rumboot_platform_panic:

00003744 <rumboot_platform_panic>:
    3744:	e92d000f 	push	{r0, r1, r2, r3}
    3748:	e92d4800 	push	{fp, lr}
    374c:	e28db004 	add	fp, sp, #4
    3750:	e24b1004 	sub	r1, fp, #4
    3754:	e24dd008 	sub	sp, sp, #8
    3758:	e59b4004 	ldr	r4, [fp, #4]
    375c:	e521b004 	str	fp, [r1, #-4]!
    3760:	e3a02001 	mov	r2, #1
    3764:	e3a0000b 	mov	r0, #11
    3768:	eb00000a 	bl	3798 <rumboot_platform_event_raise>
    376c:	e3540000 	cmp	r4, #0
    3770:	0a000005 	beq	378c <rumboot_platform_panic+0x48>
    3774:	e59f0018 	ldr	r0, [pc, #24]	; 3794 <rumboot_platform_panic+0x50>
    3778:	ebfff7db 	bl	16ec <rumboot_printf>
    377c:	e28b1008 	add	r1, fp, #8
    3780:	e1a00004 	mov	r0, r4
    3784:	e50b100c 	str	r1, [fp, #-12]
    3788:	ebfff6a1 	bl	1214 <rumboot_vprintf>
    378c:	e3a00001 	mov	r0, #1
    3790:	eb00006e 	bl	3950 <exit>
    3794:	000051ca 	andeq	r5, r0, sl, asr #3

Disassembly of section .text.rumboot_platform_event_raise:

00003798 <rumboot_platform_event_raise>:
    3798:	e92d4030 	push	{r4, r5, lr}
    379c:	e10f4000 	mrs	r4, CPSR
    37a0:	f10c0080 	cpsid	i
    37a4:	e3a03000 	mov	r3, #0
    37a8:	e59fe02c 	ldr	lr, [pc, #44]	; 37dc <rumboot_platform_event_raise+0x44>
    37ac:	e1530002 	cmp	r3, r2
    37b0:	1a000003 	bne	37c4 <rumboot_platform_event_raise+0x2c>
    37b4:	e58e0008 	str	r0, [lr, #8]
    37b8:	e10f3000 	mrs	r3, CPSR
    37bc:	e129f004 	msr	CPSR_fc, r4
    37c0:	e8bd8030 	pop	{r4, r5, pc}
    37c4:	e283c002 	add	ip, r3, #2
    37c8:	e7915103 	ldr	r5, [r1, r3, lsl #2]
    37cc:	e08ec10c 	add	ip, lr, ip, lsl #2
    37d0:	e2833001 	add	r3, r3, #1
    37d4:	e58c5004 	str	r5, [ip, #4]
    37d8:	eafffff3 	b	37ac <rumboot_platform_event_raise+0x14>
    37dc:	0007f000 	andeq	pc, r7, r0

Disassembly of section .text.rumboot_main:

000037e0 <rumboot_main>:
    37e0:	e59f0138 	ldr	r0, [pc, #312]	; 3920 <rumboot_main+0x140>
    37e4:	e92d4070 	push	{r4, r5, r6, lr}
    37e8:	e3a0100b 	mov	r1, #11
    37ec:	e3a04000 	mov	r4, #0
    37f0:	e3e02021 	mvn	r2, #33	; 0x21
    37f4:	e3e0303f 	mvn	r3, #63	; 0x3f
    37f8:	e5c01002 	strb	r1, [r0, #2]
    37fc:	e3e0104f 	mvn	r1, #79	; 0x4f
    3800:	e5c02000 	strb	r2, [r0]
    3804:	e5c01003 	strb	r1, [r0, #3]
    3808:	e5d01030 	ldrb	r1, [r0, #48]	; 0x30
    380c:	e5c04030 	strb	r4, [r0, #48]	; 0x30
    3810:	e5d01031 	ldrb	r1, [r0, #49]	; 0x31
    3814:	e5c04031 	strb	r4, [r0, #49]	; 0x31
    3818:	e5d01032 	ldrb	r1, [r0, #50]	; 0x32
    381c:	e5c04032 	strb	r4, [r0, #50]	; 0x32
    3820:	e5d01033 	ldrb	r1, [r0, #51]	; 0x33
    3824:	e5c04033 	strb	r4, [r0, #51]	; 0x33
    3828:	e5d01008 	ldrb	r1, [r0, #8]
    382c:	e5c04008 	strb	r4, [r0, #8]
    3830:	e5d01009 	ldrb	r1, [r0, #9]
    3834:	e5c04009 	strb	r4, [r0, #9]
    3838:	e5d0100a 	ldrb	r1, [r0, #10]
    383c:	e5c0400a 	strb	r4, [r0, #10]
    3840:	e5d0100b 	ldrb	r1, [r0, #11]
    3844:	e5c0400b 	strb	r4, [r0, #11]
    3848:	e5d0102c 	ldrb	r1, [r0, #44]	; 0x2c
    384c:	e5c0202c 	strb	r2, [r0, #44]	; 0x2c
    3850:	e5d0102d 	ldrb	r1, [r0, #45]	; 0x2d
    3854:	e5c0302d 	strb	r3, [r0, #45]	; 0x2d
    3858:	e5d0102e 	ldrb	r1, [r0, #46]	; 0x2e
    385c:	e3a01001 	mov	r1, #1
    3860:	e5c03001 	strb	r3, [r0, #1]
    3864:	e5c0102e 	strb	r1, [r0, #46]	; 0x2e
    3868:	e5d0102f 	ldrb	r1, [r0, #47]	; 0x2f
    386c:	e5c0402f 	strb	r4, [r0, #47]	; 0x2f
    3870:	e5d01004 	ldrb	r1, [r0, #4]
    3874:	e5c02004 	strb	r2, [r0, #4]
    3878:	e5d02005 	ldrb	r2, [r0, #5]
    387c:	e5c03005 	strb	r3, [r0, #5]
    3880:	e5d03006 	ldrb	r3, [r0, #6]
    3884:	e3a03002 	mov	r3, #2
    3888:	e3a020cc 	mov	r2, #204	; 0xcc
    388c:	e5c03006 	strb	r3, [r0, #6]
    3890:	e1a01004 	mov	r1, r4
    3894:	e5d03007 	ldrb	r3, [r0, #7]
    3898:	e5c04007 	strb	r4, [r0, #7]
    389c:	e2800074 	add	r0, r0, #116	; 0x74
    38a0:	eb000046 	bl	39c0 <memset>
    38a4:	e10f3000 	mrs	r3, CPSR
    38a8:	f10c0080 	cpsid	i
    38ac:	ebfff448 	bl	9d4 <rumboot_platform_setup>
    38b0:	e59f506c 	ldr	r5, [pc, #108]	; 3924 <rumboot_main+0x144>
    38b4:	e59f306c 	ldr	r3, [pc, #108]	; 3928 <rumboot_main+0x148>
    38b8:	e0455003 	sub	r5, r5, r3
    38bc:	e1a06003 	mov	r6, r3
    38c0:	e1a05145 	asr	r5, r5, #2
    38c4:	e1550004 	cmp	r5, r4
    38c8:	1a00000c 	bne	3900 <rumboot_main+0x120>
    38cc:	eb000031 	bl	3998 <_init>
    38d0:	e59f4054 	ldr	r4, [pc, #84]	; 392c <rumboot_main+0x14c>
    38d4:	e59f3054 	ldr	r3, [pc, #84]	; 3930 <rumboot_main+0x150>
    38d8:	e3a05000 	mov	r5, #0
    38dc:	e0444003 	sub	r4, r4, r3
    38e0:	e1a06003 	mov	r6, r3
    38e4:	e1a04144 	asr	r4, r4, #2
    38e8:	e1540005 	cmp	r4, r5
    38ec:	1a000007 	bne	3910 <rumboot_main+0x130>
    38f0:	e3a00000 	mov	r0, #0
    38f4:	ebffff82 	bl	3704 <rumboot_platform_perf>
    38f8:	ebfff356 	bl	658 <main>
    38fc:	eb000013 	bl	3950 <exit>
    3900:	e7963104 	ldr	r3, [r6, r4, lsl #2]
    3904:	e12fff33 	blx	r3
    3908:	e2844001 	add	r4, r4, #1
    390c:	eaffffec 	b	38c4 <rumboot_main+0xe4>
    3910:	e7963105 	ldr	r3, [r6, r5, lsl #2]
    3914:	e12fff33 	blx	r3
    3918:	e2855001 	add	r5, r5, #1
    391c:	eafffff1 	b	38e8 <rumboot_main+0x108>
    3920:	0007f000 	andeq	pc, r7, r0
    3924:	000051d2 	ldrdeq	r5, [r0], -r2
    3928:	000051d2 	ldrdeq	r5, [r0], -r2
    392c:	000051d2 	ldrdeq	r5, [r0], -r2
    3930:	000051d2 	ldrdeq	r5, [r0], -r2

Disassembly of section .text._exit:

00003934 <_exit>:
    3934:	e92d4007 	push	{r0, r1, r2, lr}
    3938:	e28d1008 	add	r1, sp, #8
    393c:	e3a02001 	mov	r2, #1
    3940:	e5210004 	str	r0, [r1, #-4]!
    3944:	e1a00002 	mov	r0, r2
    3948:	ebffff92 	bl	3798 <rumboot_platform_event_raise>
    394c:	eafffffe 	b	394c <_exit+0x18>

Disassembly of section .text.exit:

00003950 <exit>:
    3950:	e59f3038 	ldr	r3, [pc, #56]	; 3990 <exit+0x40>
    3954:	e92d4010 	push	{r4, lr}
    3958:	e59f4034 	ldr	r4, [pc, #52]	; 3994 <exit+0x44>
    395c:	e1a06000 	mov	r6, r0
    3960:	e0444003 	sub	r4, r4, r3
    3964:	e1a05003 	mov	r5, r3
    3968:	e1a04144 	asr	r4, r4, #2
    396c:	e3540000 	cmp	r4, #0
    3970:	1a000002 	bne	3980 <exit+0x30>
    3974:	eb000008 	bl	399c <_fini>
    3978:	e1a00006 	mov	r0, r6
    397c:	ebffffec 	bl	3934 <_exit>
    3980:	e2444001 	sub	r4, r4, #1
    3984:	e7953104 	ldr	r3, [r5, r4, lsl #2]
    3988:	e12fff33 	blx	r3
    398c:	eafffff6 	b	396c <exit+0x1c>
	...

Disassembly of section .text._init:

00003998 <_init>:
    3998:	e12fff1e 	bx	lr

Disassembly of section .text._fini:

0000399c <_fini>:
    399c:	e12fff1e 	bx	lr

Disassembly of section .text.memcpy:

000039a0 <memcpy>:
    39a0:	e2403001 	sub	r3, r0, #1
    39a4:	e0812002 	add	r2, r1, r2
    39a8:	e1510002 	cmp	r1, r2
    39ac:	1a000000 	bne	39b4 <memcpy+0x14>
    39b0:	e12fff1e 	bx	lr
    39b4:	e4d1c001 	ldrb	ip, [r1], #1
    39b8:	e5e3c001 	strb	ip, [r3, #1]!
    39bc:	eafffff9 	b	39a8 <memcpy+0x8>

Disassembly of section .text.memset:

000039c0 <memset>:
    39c0:	e0802002 	add	r2, r0, r2
    39c4:	e1a03000 	mov	r3, r0
    39c8:	e1530002 	cmp	r3, r2
    39cc:	1a000000 	bne	39d4 <memset+0x14>
    39d0:	e12fff1e 	bx	lr
    39d4:	e4c31001 	strb	r1, [r3], #1
    39d8:	eafffffa 	b	39c8 <memset+0x8>

Disassembly of section .rodata.dump_parameter.str1.1:

000039dc <.rodata.dump_parameter.str1.1>:
    39dc:	61736964 	cmnvs	r3, r4, ror #18
    39e0:	64656c62 	strbtvs	r6, [r5], #-3170	; 0xfffff39e
    39e4:	616e6500 	cmnvs	lr, r0, lsl #10
    39e8:	64656c62 	strbtvs	r6, [r5], #-3170	; 0xfffff39e
	...

Disassembly of section .rodata.hostmode_loop.str1.1:

000039ed <.rodata.hostmode_loop.str1.1>:
    39ed:	74736f68 	ldrbtvc	r6, [r3], #-3944	; 0xfffff098
    39f1:	6f6f6200 	svcvs	0x006f6200
    39f5:	25203a74 	strcs	r3, [r0, #-2676]!	; 0xfffff58c
    39f9:	45203a73 	strmi	r3, [r0, #-2675]!	; 0xfffff58d
    39fd:	7265746e 	rsbvc	r7, r5, #1845493760	; 0x6e000000
    3a01:	20676e69 	rsbcs	r6, r7, r9, ror #28
    3a05:	74736f68 	ldrbtvc	r6, [r3], #-3944	; 0xfffff098
    3a09:	646f6d20 	strbtvs	r6, [pc], #-3360	; 3a11 <memset+0x51>
    3a0d:	6f6c2065 	svcvs	0x006c2065
    3a11:	000a706f 	andeq	r7, sl, pc, rrx
    3a15:	746f6f62 	strbtvc	r6, [pc], #-3938	; 3a1d <memset+0x5d>
    3a19:	7325203a 			; <UNDEFINED> instruction: 0x7325203a
    3a1d:	6948203a 	stmdbvs	r8, {r1, r3, r4, r5, sp}^
    3a21:	58272074 	stmdapl	r7!, {r2, r4, r5, r6, sp}
    3a25:	6f662027 	svcvs	0x00662027
    3a29:	6d782072 	ldclvs	0, cr2, [r8, #-456]!	; 0xfffffe38
    3a2d:	6d65646f 	cfstrdvs	mvd6, [r5, #-444]!	; 0xfffffe44
    3a31:	6c707520 	cfldr64vs	mvdx7, [r0], #-128	; 0xffffff80
    3a35:	0a64616f 	beq	191bff9 <rumboot_platform_stack_area_end+0x189cff9>
    3a39:	534f4800 	movtpl	r4, #63488	; 0xf800
    3a3d:	0a0a0054 	beq	283b95 <rumboot_platform_stack_area_end+0x204b95>
    3a41:	6f62000a 	svcvs	0x0062000a
    3a45:	203a746f 	eorscs	r7, sl, pc, ror #8
    3a49:	203a7325 	eorscs	r7, sl, r5, lsr #6
    3a4d:	65636552 	strbvs	r6, [r3, #-1362]!	; 0xfffffaae
    3a51:	64657669 	strbtvs	r7, [r5], #-1641	; 0xfffff997
    3a55:	70206120 	eorvc	r6, r0, r0, lsr #2
    3a59:	6f6c7961 	svcvs	0x006c7961
    3a5d:	6f206461 	svcvs	0x00206461
    3a61:	64252066 	strtvs	r2, [r5], #-102	; 0xffffff9a
    3a65:	74796220 	ldrbtvc	r6, [r9], #-544	; 0xfffffde0
    3a69:	202c7365 	eorcs	r7, ip, r5, ror #6
    3a6d:	63657865 	cmnvs	r5, #6619136	; 0x650000
    3a71:	6e697475 	mcrvs	4, 3, r7, cr9, cr5, {3}
    3a75:	6e692067 	cdpvs	0, 6, cr2, cr9, cr7, {3}
    3a79:	30303120 	eorscc	r3, r0, r0, lsr #2
    3a7d:	000a736d 	andeq	r7, sl, sp, ror #6
    3a81:	746f6f62 	strbtvc	r6, [pc], #-3938	; 3a89 <memset+0xc9>
    3a85:	7325203a 			; <UNDEFINED> instruction: 0x7325203a
    3a89:	7055203a 	subsvc	r2, r5, sl, lsr r0
    3a8d:	64616f6c 	strbtvs	r6, [r1], #-3948	; 0xfffff094
    3a91:	61697620 	cmnvs	r9, r0, lsr #12
    3a95:	6f6d7820 	svcvs	0x006d7820
    3a99:	206d6564 	rsbcs	r6, sp, r4, ror #10
    3a9d:	6c696166 	stfvse	f6, [r9], #-408	; 0xfffffe68
    3aa1:	77206465 	strvc	r6, [r0, -r5, ror #8]!
    3aa5:	20687469 	rsbcs	r7, r8, r9, ror #8
    3aa9:	65646f63 	strbvs	r6, [r4, #-3939]!	; 0xfffff09d
    3aad:	0a642520 	beq	190cf35 <rumboot_platform_stack_area_end+0x188df35>
    3ab1:	6f6f6200 	svcvs	0x006f6200
    3ab5:	25203a74 	strcs	r3, [r0, #-2676]!	; 0xfffff58c
    3ab9:	4d203a73 	vstmdbmi	r0!, {s6-s120}
    3abd:	71696127 	cmnvc	r9, r7, lsr #2
    3ac1:	65687420 	strbvs	r7, [r8, #-1056]!	; 0xfffffbe0
    3ac5:	61694c20 	cmnvs	r9, r0, lsr #24
    3ac9:	54203a72 	strtpl	r3, [r0], #-2674	; 0xfffff58e
    3acd:	65726568 	ldrbvs	r6, [r2, #-1384]!	; 0xfffffa98
    3ad1:	65726120 	ldrbvs	r6, [r2, #-288]!	; 0xfffffee0
    3ad5:	73626120 	cmnvc	r2, #32, 2
    3ad9:	74756c6f 	ldrbtvc	r6, [r5], #-3183	; 0xfffff391
    3add:	20796c65 	rsbscs	r6, r9, r5, ror #24
    3ae1:	65206f6e 	strvs	r6, [r0, #-3950]!	; 0xfffff092
    3ae5:	65747361 	ldrbvs	r7, [r4, #-865]!	; 0xfffffc9f
    3ae9:	67652072 			; <UNDEFINED> instruction: 0x67652072
    3aed:	69207367 	stmdbvs	r0!, {r0, r1, r2, r5, r6, r8, r9, ip, sp, lr}
    3af1:	6f62206e 	svcvs	0x0062206e
    3af5:	6f72746f 	svcvs	0x0072746f
    3af9:	6f63206d 	svcvs	0x0063206d
    3afd:	0a2e6564 	beq	b9d095 <rumboot_platform_stack_area_end+0xb1e095>
    3b01:	53414500 	movtpl	r4, #5376	; 0x1500
    3b05:	5f524554 	svcpl	0x00524554
    3b09:	00474745 	subeq	r4, r7, r5, asr #14
    3b0d:	746f6f62 	strbtvc	r6, [pc], #-3938	; 3b15 <memset+0x155>
    3b11:	7325203a 			; <UNDEFINED> instruction: 0x7325203a
    3b15:	6156203a 	cmpvs	r6, sl, lsr r0
    3b19:	6164696c 	cmnvs	r4, ip, ror #18
    3b1d:	6e6f6974 			; <UNDEFINED> instruction: 0x6e6f6974
    3b21:	69616620 	stmdbvs	r1!, {r5, r9, sl, sp, lr}^
    3b25:	3a64656c 	bcc	191d0dd <rumboot_platform_stack_area_end+0x189e0dd>
    3b29:	0a732520 	beq	1cccfb1 <rumboot_platform_stack_area_end+0x1c4dfb1>
    3b2d:	6f62000a 	svcvs	0x0062000a
    3b31:	203a746f 	eorscs	r7, sl, pc, ror #8
    3b35:	203a7325 	eorscs	r7, sl, r5, lsr #6
    3b39:	64616548 	strbtvs	r6, [r1], #-1352	; 0xfffffab8
    3b3d:	76207265 	strtvc	r7, [r0], -r5, ror #4
    3b41:	64696c61 	strbtvs	r6, [r9], #-3169	; 0xfffff39f
    3b45:	6f697461 	svcvs	0x00697461
    3b49:	6f63206e 	svcvs	0x0063206e
    3b4d:	656c706d 	strbvs	r7, [ip, #-109]!	; 0xffffff93
    3b51:	000a6574 	andeq	r6, sl, r4, ror r5
    3b55:	746f6f62 	strbtvc	r6, [pc], #-3938	; 3b5d <memset+0x19d>
    3b59:	7325203a 			; <UNDEFINED> instruction: 0x7325203a
    3b5d:	6142203a 	cmpvs	r2, sl, lsr r0
    3b61:	69206b63 	stmdbvs	r0!, {r0, r1, r5, r6, r8, r9, fp, sp, lr}
    3b65:	6f72206e 	svcvs	0x0072206e
    3b69:	63202c6d 			; <UNDEFINED> instruction: 0x63202c6d
    3b6d:	2065646f 	rsbcs	r6, r5, pc, ror #8
    3b71:	000a6425 	andeq	r6, sl, r5, lsr #8
    3b75:	746f6f62 	strbtvc	r6, [pc], #-3938	; 3b7d <memset+0x1bd>
    3b79:	6144203a 	cmpvs	r4, sl, lsr r0
    3b7d:	43206174 			; <UNDEFINED> instruction: 0x43206174
    3b81:	32334352 	eorscc	r4, r3, #1207959553	; 0x48000001
    3b85:	73696d20 	cmnvc	r9, #32, 26	; 0x800
    3b89:	6374616d 	cmnvs	r4, #1073741851	; 0x4000001b
    3b8d:	Address 0x0000000000003b8d is out of bounds.


Disassembly of section .rodata.main.str1.1:

00003b90 <.rodata.main.str1.1>:
    3b90:	666e6f43 	strbtvs	r6, [lr], -r3, asr #30
    3b94:	70206769 	eorvc	r6, r0, r9, ror #14
    3b98:	746e6972 	strbtvc	r6, [lr], #-2418	; 0xfffff68e
    3b9c:	0074756f 	rsbseq	r7, r4, pc, ror #10
    3ba0:	666c6553 			; <UNDEFINED> instruction: 0x666c6553
    3ba4:	74736574 	ldrbtvc	r6, [r3], #-1396	; 0xfffffa8c
    3ba8:	6c657300 	stclvs	3, cr7, [r5], #-0
    3bac:	73657466 	cmnvc	r5, #1711276032	; 0x66000000
    3bb0:	25203a74 	strcs	r3, [r0, #-2676]!	; 0xfffff58c
    3bb4:	65742064 	ldrbvs	r2, [r4, #-100]!	; 0xffffff9c
    3bb8:	66207473 			; <UNDEFINED> instruction: 0x66207473
    3bbc:	206d6f72 	rsbcs	r6, sp, r2, ror pc
    3bc0:	74697573 	strbtvc	r7, [r9], #-1395	; 0xfffffa8d
    3bc4:	61662065 	cmnvs	r6, r5, rrx
    3bc8:	64656c69 	strbtvs	r6, [r5], #-3177	; 0xfffff397
    3bcc:	6f42000a 	svcvs	0x0042000a
    3bd0:	6320746f 			; <UNDEFINED> instruction: 0x6320746f
    3bd4:	6e696168 	powvsez	f6, f1, #0.0
	...

Disassembly of section .rodata.rumboot_platform_dump_config.str1.1:

00003bd9 <.rodata.rumboot_platform_dump_config.str1.1>:
    3bd9:	202d2d2d 	eorcs	r2, sp, sp, lsr #26
    3bdd:	426d7552 	rsbmi	r7, sp, #343932928	; 0x14800000
    3be1:	20746f6f 	rsbscs	r6, r4, pc, ror #30
    3be5:	666e6f43 	strbtvs	r6, [lr], -r3, asr #30
    3be9:	72756769 	rsbsvc	r6, r5, #27525120	; 0x1a40000
    3bed:	6f697461 	svcvs	0x00697461
    3bf1:	2d2d206e 	stccs	0, cr2, [sp, #-440]!	; 0xfffffe48
    3bf5:	46000a2d 	strmi	r0, [r0], -sp, lsr #20
    3bf9:	6563726f 	strbvs	r7, [r3, #-623]!	; 0xfffffd91
    3bfd:	736f4820 	cmnvc	pc, #32, 16	; 0x200000
    3c01:	6f4d2074 	svcvs	0x004d2074
    3c05:	203a6564 	eorscs	r6, sl, r4, ror #10
    3c09:	000a7325 	andeq	r7, sl, r5, lsr #6
    3c0d:	666c6553 			; <UNDEFINED> instruction: 0x666c6553
    3c11:	74736574 	ldrbtvc	r6, [r3], #-1396	; 0xfffffa8c
    3c15:	2020203a 	eorcs	r2, r0, sl, lsr r0
    3c19:	20202020 	eorcs	r2, r0, r0, lsr #32
    3c1d:	0a732520 	beq	1ccd0a5 <rumboot_platform_stack_area_end+0x1c4e0a5>
    3c21:	43444500 	movtmi	r4, #17664	; 0x4500
    3c25:	4d522f4c 	ldclmi	15, cr2, [r2, #-304]	; 0xfffffed0
    3c29:	203a5041 	eorscs	r5, sl, r1, asr #32
    3c2d:	20202020 	eorcs	r2, r0, r0, lsr #32
    3c31:	73252020 			; <UNDEFINED> instruction: 0x73252020
    3c35:	4155000a 	cmpmi	r5, sl
    3c39:	73205452 			; <UNDEFINED> instruction: 0x73205452
    3c3d:	64656570 	strbtvs	r6, [r5], #-1392	; 0xfffffa90
    3c41:	2020203a 	eorcs	r2, r0, sl, lsr r0
    3c45:	25202020 	strcs	r2, [r0, #-32]!	; 0xffffffe0
    3c49:	70622064 	rsbvc	r2, r2, r4, rrx
    3c4d:	4d000a73 	vstrmi	s0, [r0, #-460]	; 0xfffffe34
    3c51:	53207861 			; <UNDEFINED> instruction: 0x53207861
    3c55:	73204c50 			; <UNDEFINED> instruction: 0x73204c50
    3c59:	3a657a69 	bcc	1962605 <rumboot_platform_stack_area_end+0x18e3605>
    3c5d:	20202020 	eorcs	r2, r0, r0, lsr #32
    3c61:	62206425 	eorvs	r6, r0, #620756992	; 0x25000000
    3c65:	73657479 	cmnvc	r5, #2030043136	; 0x79000000
    3c69:	2d2d000a 	stccs	0, cr0, [sp, #-40]!	; 0xffffffd8
    3c6d:	2020202d 	eorcs	r2, r0, sp, lsr #32
    3c71:	20202020 	eorcs	r2, r0, r0, lsr #32
    3c75:	2d202020 	stccs	0, cr2, [r0, #-128]!	; 0xffffff80
    3c79:	20202d2d 	eorcs	r2, r0, sp, lsr #26
    3c7d:	20202020 	eorcs	r2, r0, r0, lsr #32
    3c81:	20202020 	eorcs	r2, r0, r0, lsr #32
    3c85:	0a2d2d2d 	beq	b4f141 <rumboot_platform_stack_area_end+0xad0141>
	...

Disassembly of section .rodata.check_bisr.str1.1:

00003c8a <.rodata.check_bisr.str1.1>:
    3c8a:	6f727245 	svcvs	0x00727245
    3c8e:	54203a72 	strtpl	r3, [r0], #-2674	; 0xfffff58e
    3c92:	6f656d69 	svcvs	0x00656d69
    3c96:	77207475 			; <UNDEFINED> instruction: 0x77207475
    3c9a:	69746961 	ldmdbvs	r4!, {r0, r5, r6, r8, fp, sp, lr}^
    3c9e:	6620676e 	strtvs	r6, [r0], -lr, ror #14
    3ca2:	4220726f 	eormi	r7, r0, #-268435450	; 0xf0000006
    3ca6:	20525349 	subscs	r5, r2, r9, asr #6
    3caa:	63206f74 			; <UNDEFINED> instruction: 0x63206f74
    3cae:	6c706d6f 	ldclvs	13, cr6, [r0], #-444	; 0xfffffe44
    3cb2:	2e657465 	cdpcs	4, 6, cr7, cr5, cr5, {3}
    3cb6:	654d000a 	strbvs	r0, [sp, #-10]
    3cba:	79726f6d 	ldmdbvc	r2!, {r0, r2, r3, r5, r6, r8, r9, sl, fp, sp, lr}^
    3cbe:	64657220 	strbtvs	r7, [r5], #-544	; 0xfffffde0
    3cc2:	61646e75 	smcvs	18149	; 0x46e5
    3cc6:	2079636e 	rsbscs	r6, r9, lr, ror #6
    3cca:	63656863 	cmnvs	r5, #6488064	; 0x630000
    3cce:	00203a6b 	eoreq	r3, r0, fp, ror #20
    3cd2:	6b6e754a 	blvs	1ba1202 <rumboot_platform_stack_area_end+0x1b22202>
    3cd6:	6954000a 	ldmdbvs	r4, {r1, r3}^
    3cda:	756f656d 	strbvc	r6, [pc, #-1389]!	; 3775 <rumboot_platform_panic+0x31>
    3cde:	50000a74 	andpl	r0, r0, r4, ror sl
    3ce2:	65667265 	strbvs	r7, [r6, #-613]!	; 0xfffffd9b
    3ce6:	000a7463 	andeq	r7, sl, r3, ror #8
    3cea:	646f6f47 	strbtvs	r6, [pc], #-3911	; 3cf2 <memset+0x332>
    3cee:	Address 0x0000000000003cee is out of bounds.


Disassembly of section .rodata.check_pcie_mbist.str1.1:

00003cf0 <.rodata.check_pcie_mbist.str1.1>:
    3cf0:	4953424d 	ldmdbmi	r3, {r0, r2, r3, r6, r9, lr}^
    3cf4:	50203a54 	eorpl	r3, r0, r4, asr sl
    3cf8:	6e204c4c 	cdpvs	12, 2, cr4, cr0, cr12, {2}
    3cfc:	6c20776f 	stcvs	7, cr7, [r0], #-444	; 0xfffffe44
    3d00:	656b636f 	strbvs	r6, [fp, #-879]!	; 0xfffffc91
    3d04:	45000a64 	strmi	r0, [r0, #-2660]	; 0xfffff59c
    3d08:	726f7272 	rsbvc	r7, pc, #536870919	; 0x20000007
    3d0c:	6954203a 	ldmdbvs	r4, {r1, r3, r4, r5, sp}^
    3d10:	756f656d 	strbvc	r6, [pc, #-1389]!	; 37ab <rumboot_platform_event_raise+0x13>
    3d14:	61772074 	cmnvs	r7, r4, ror r0
    3d18:	6e697469 	cdpvs	4, 6, cr7, cr9, cr9, {3}
    3d1c:	6f662067 	svcvs	0x00662067
    3d20:	4c502072 	mrrcmi	0, 7, r2, r0, cr2
    3d24:	6f74204c 	svcvs	0x0074204c
    3d28:	636f6c20 	cmnvs	pc, #32, 24	; 0x2000
    3d2c:	000a2e6b 	andeq	r2, sl, fp, ror #28
    3d30:	5349424d 	movtpl	r4, #37453	; 0x924d
    3d34:	63203a54 			; <UNDEFINED> instruction: 0x63203a54
    3d38:	6c706d6f 	ldclvs	13, cr6, [r0], #-444	; 0xfffffe44
    3d3c:	64657465 	strbtvs	r7, [r5], #-1125	; 0xfffffb9b
    3d40:	7245000a 	subvc	r0, r5, #10
    3d44:	3a726f72 	bcc	1c9fb14 <rumboot_platform_stack_area_end+0x1c20b14>
    3d48:	6d695420 	cfstrdvs	mvd5, [r9, #-128]!	; 0xffffff80
    3d4c:	74756f65 	ldrbtvc	r6, [r5], #-3941	; 0xfffff09b
    3d50:	69617720 	stmdbvs	r1!, {r5, r8, r9, sl, ip, sp, lr}^
    3d54:	676e6974 			; <UNDEFINED> instruction: 0x676e6974
    3d58:	726f6620 	rsbvc	r6, pc, #32, 12	; 0x2000000
    3d5c:	49424d20 	stmdbmi	r2, {r5, r8, sl, fp, lr}^
    3d60:	74205453 	strtvc	r5, [r0], #-1107	; 0xfffffbad
    3d64:	6966206f 	stmdbvs	r6!, {r0, r1, r2, r3, r5, r6, sp}^
    3d68:	6873696e 	ldmdavs	r3!, {r1, r2, r3, r5, r6, r8, fp, sp, lr}^
    3d6c:	Address 0x0000000000003d6c is out of bounds.


Disassembly of section .rodata.selftest:

00003d70 <selftest>:
    3d70:	00003dc8 	andeq	r3, r0, r8, asr #27
    3d74:	0000000a 	andeq	r0, r0, sl
    3d78:	00003dd1 	ldrdeq	r3, [r0], -r1
    3d7c:	0000000e 	andeq	r0, r0, lr
    3d80:	00000734 	andeq	r0, r0, r4, lsr r7
    3d84:	0108e000 	mrseq	lr, (UNDEF: 8)
    3d88:	00000000 	andeq	r0, r0, r0
    3d8c:	00003ddf 	ldrdeq	r3, [r0], -pc	; <UNPREDICTABLE>
    3d90:	0000000b 	andeq	r0, r0, fp
    3d94:	00000768 	andeq	r0, r0, r8, ror #14
    3d98:	0108d038 	tsteq	r8, r8, lsr r0
    3d9c:	00000000 	andeq	r0, r0, r0
    3da0:	00003dea 	andeq	r3, r0, sl, ror #27
    3da4:	00000009 	andeq	r0, r0, r9
    3da8:	00000890 	muleq	r0, r0, r8
    3dac:	0108d038 	tsteq	r8, r8, lsr r0
	...

Disassembly of section .rodata.str1.1:

00003dc8 <.rodata.str1.1>:
    3dc8:	666c6553 			; <UNDEFINED> instruction: 0x666c6553
    3dcc:	74736574 	ldrbtvc	r6, [r3], #-1396	; 0xfffffa8c
    3dd0:	6f6c4700 	svcvs	0x006c4700
    3dd4:	206c6162 	rsbcs	r6, ip, r2, ror #2
    3dd8:	656d6954 	strbvs	r6, [sp, #-2388]!	; 0xfffff6ac
    3ddc:	50007372 	andpl	r7, r0, r2, ror r3
    3de0:	20654943 	rsbcs	r4, r5, r3, asr #18
    3de4:	5349424d 	movtpl	r4, #37453	; 0x924d
    3de8:	324c0054 	subcc	r0, ip, #84	; 0x54
    3dec:	49422043 	stmdbmi	r2, {r0, r1, r6, sp}^
    3df0:	53005253 	movwpl	r5, #595	; 0x253
    3df4:	304f4944 	subcc	r4, pc, r4, asr #18
    3df8:	44432820 	strbmi	r2, [r3], #-2080	; 0xfffff7e0
    3dfc:	5047203a 	subpl	r2, r7, sl, lsr r0
    3e00:	5f304f49 	svcpl	0x00304f49
    3e04:	53002933 	movwpl	r2, #2355	; 0x933
    3e08:	20304950 	eorscs	r4, r0, r0, asr r9
    3e0c:	3a534328 	bcc	14d4ab4 <rumboot_platform_stack_area_end+0x1455ab4>
    3e10:	746e6920 	strbtvc	r6, [lr], #-2336	; 0xfffff6e0
    3e14:	616e7265 	cmnvs	lr, r5, ror #4
    3e18:	5300296c 	movwpl	r2, #2412	; 0x96c
    3e1c:	20304950 	eorscs	r4, r0, r0, asr r9
    3e20:	3a534328 	bcc	14d4ac8 <rumboot_platform_stack_area_end+0x1455ac8>
    3e24:	49504720 	ldmdbmi	r0, {r5, r8, r9, sl, lr}^
    3e28:	355f304f 	ldrbcc	r3, [pc, #-79]	; 3de1 <selftest+0x71>
    3e2c:	32490029 	subcc	r0, r9, #41	; 0x29
    3e30:	28203043 	stmdacs	r0!, {r0, r1, r6, ip, sp}
    3e34:	52504545 	subspl	r4, r0, #289406976	; 0x11400000
    3e38:	40204d4f 	eormi	r4, r0, pc, asr #26
    3e3c:	35783020 	ldrbcc	r3, [r8, #-32]!	; 0xffffffe0
    3e40:	49002930 	stmdbmi	r0, {r4, r5, r8, fp, sp}
    3e44:	20304332 	eorscs	r4, r0, r2, lsr r3
    3e48:	50454528 	subpl	r4, r5, r8, lsr #10
    3e4c:	204d4f52 	subcs	r4, sp, r2, asr pc
    3e50:	78302040 	ldmdavc	r0!, {r6, sp}
    3e54:	00293135 	eoreq	r3, r9, r5, lsr r1
    3e58:	30433249 	subcc	r3, r3, r9, asr #4
    3e5c:	45452820 	strbmi	r2, [r5, #-2080]	; 0xfffff7e0
    3e60:	4d4f5250 	sfmmi	f5, 2, [pc, #-320]	; 3d28 <memset+0x368>
    3e64:	30204020 	eorcc	r4, r0, r0, lsr #32
    3e68:	29323578 	ldmdbcs	r2!, {r3, r4, r5, r6, r8, sl, ip, sp}
    3e6c:	43324900 	teqmi	r2, #0, 18
    3e70:	45282030 	strmi	r2, [r8, #-48]!	; 0xffffffd0
    3e74:	4f525045 	svcmi	0x00525045
    3e78:	2040204d 	subcs	r2, r0, sp, asr #32
    3e7c:	33357830 	teqcc	r5, #48, 16	; 0x300000
    3e80:	44530029 	ldrbmi	r0, [r3], #-41	; 0xffffffd7
    3e84:	20314f49 	eorscs	r4, r1, r9, asr #30
    3e88:	3a444328 	bcc	1114b30 <rumboot_platform_stack_area_end+0x1095b30>
    3e8c:	49504720 	ldmdbmi	r0, {r5, r8, r9, sl, lr}^
    3e90:	345f304f 	ldrbcc	r3, [pc], #-79	; 3e98 <selftest+0x128>
    3e94:	72500029 	subsvc	r0, r0, #41	; 0x29
    3e98:	74656665 	strbtvc	r6, [r5], #-1637	; 0xfffff99b
    3e9c:	41206863 			; <UNDEFINED> instruction: 0x41206863
    3ea0:	74726f62 	ldrbtvc	r6, [r2], #-3938	; 0xfffff09e
    3ea4:	74614400 	strbtvc	r4, [r1], #-1024	; 0xfffffc00
    3ea8:	62412061 	subvs	r2, r1, #97	; 0x61
    3eac:	0074726f 	rsbseq	r7, r4, pc, ror #4
    3eb0:	65646e55 	strbvs	r6, [r4, #-3669]!	; 0xfffff1ab
    3eb4:	656e6966 	strbvs	r6, [lr, #-2406]!	; 0xfffff69a
    3eb8:	6e492064 	cdpvs	0, 4, cr2, cr9, cr4, {3}
    3ebc:	75727473 	ldrbvc	r7, [r2, #-1139]!	; 0xfffffb8d
    3ec0:	6f697463 	svcvs	0x00697463
    3ec4:	6f53006e 	svcvs	0x0053006e
    3ec8:	61777466 	cmnvs	r7, r6, ror #8
    3ecc:	45206572 	strmi	r6, [r0, #-1394]!	; 0xfffffa8e
    3ed0:	70656378 	rsbvc	r6, r5, r8, ror r3
    3ed4:	6e6f6974 			; <UNDEFINED> instruction: 0x6e6f6974
    3ed8:	63614d00 	cmnvs	r1, #0, 26
    3edc:	656e6968 	strbvs	r6, [lr, #-2408]!	; 0xfffff698
    3ee0:	65684320 	strbvs	r4, [r8, #-800]!	; 0xfffffce0
    3ee4:	44006b63 	strmi	r6, [r0], #-2915	; 0xfffff49d
    3ee8:	20617461 	rsbcs	r7, r1, r1, ror #8
    3eec:	726f7453 	rsbvc	r7, pc, #1392508928	; 0x53000000
    3ef0:	00656761 	rsbeq	r6, r5, r1, ror #14
    3ef4:	74736e49 	ldrbtvc	r6, [r3], #-3657	; 0xfffff1b7
    3ef8:	6f745320 	svcvs	0x00745320
    3efc:	65676172 	strbvs	r6, [r7, #-370]!	; 0xfffffe8e
    3f00:	696c4100 	stmdbvs	ip!, {r8, lr}^
    3f04:	656d6e67 	strbvs	r6, [sp, #-3687]!	; 0xfffff199
    3f08:	5000746e 	andpl	r7, r0, lr, ror #8
    3f0c:	72676f72 	rsbvc	r6, r7, #456	; 0x1c8
    3f10:	46006d61 	strmi	r6, [r0], -r1, ror #26
    3f14:	74616f6c 	strbtvc	r6, [r1], #-3948	; 0xfffff094
    3f18:	2d676e69 	stclcs	14, cr6, [r7, #-420]!	; 0xfffffe5c
    3f1c:	6e696f50 	mcrvs	15, 3, r6, cr9, cr0, {2}
    3f20:	6e552074 	mrcvs	0, 2, r2, cr5, cr4, {3}
    3f24:	69617661 	stmdbvs	r1!, {r0, r5, r6, r9, sl, ip, sp, lr}^
    3f28:	6c62616c 	stfvse	f6, [r2], #-432	; 0xfffffe50
    3f2c:	79530065 	ldmdbvc	r3, {r0, r2, r5, r6}^
    3f30:	6d657473 	cfstrdvs	mvd7, [r5, #-460]!	; 0xfffffe34
    3f34:	6c614320 	stclvs	3, cr4, [r1], #-128	; 0xffffff80
    3f38:	7541006c 	strbvc	r0, [r1, #-108]	; 0xffffff94
    3f3c:	696c6978 	stmdbvs	ip!, {r3, r4, r5, r6, r8, fp, sp, lr}^
    3f40:	20797261 	rsbscs	r7, r9, r1, ror #4
    3f44:	636f7250 	cmnvs	pc, #80, 4
    3f48:	6f737365 	svcvs	0x00737365
    3f4c:	6e552072 	mrcvs	0, 2, r2, cr5, cr2, {3}
    3f50:	69617661 	stmdbvs	r1!, {r0, r5, r6, r9, sl, ip, sp, lr}^
    3f54:	6c62616c 	stfvse	f6, [r2], #-432	; 0xfffffe50
    3f58:	65440065 	strbvs	r0, [r4, #-101]	; 0xffffff9b
    3f5c:	6d657263 	sfmvs	f7, 2, [r5, #-396]!	; 0xfffffe74
    3f60:	65746e65 	ldrbvs	r6, [r4, #-3685]!	; 0xfffff19b
    3f64:	69460072 	stmdbvs	r6, {r1, r4, r5, r6}^
    3f68:	2d646578 	cfstr64cs	mvdx6, [r4, #-480]!	; 0xfffffe20
    3f6c:	65746e49 	ldrbvs	r6, [r4, #-3657]!	; 0xfffff1b7
    3f70:	6c617672 	stclvs	6, cr7, [r1], #-456	; 0xfffffe38
    3f74:	6d695420 	cfstrdvs	mvd5, [r9, #-128]!	; 0xffffff80
    3f78:	57007265 	strpl	r7, [r0, -r5, ror #4]
    3f7c:	68637461 	stmdavs	r3!, {r0, r5, r6, sl, ip, sp, lr}^
    3f80:	20676f64 	rsbcs	r6, r7, r4, ror #30
    3f84:	656d6954 	strbvs	r6, [sp, #-2388]!	; 0xfffff6ac
    3f88:	61440072 	hvcvs	16386	; 0x4002
    3f8c:	54206174 	strtpl	r6, [r0], #-372	; 0xfffffe8c
    3f90:	4520424c 	strmi	r4, [r0, #-588]!	; 0xfffffdb4
    3f94:	726f7272 	rsbvc	r7, pc, #536870919	; 0x20000007
    3f98:	736e4900 	cmnvc	lr, #0, 18
    3f9c:	4c542074 	mrrcmi	0, 7, r2, r4, cr4
    3fa0:	72452042 	subvc	r2, r5, #66	; 0x42
    3fa4:	00726f72 	rsbseq	r6, r2, r2, ror pc
    3fa8:	75626544 	strbvc	r6, [r2, #-1348]!	; 0xfffffabc
    3fac:	6e550067 	cdpvs	0, 5, cr0, cr5, cr7, {3}
    3fb0:	776f6e6b 	strbvc	r6, [pc, -fp, ror #28]!
    3fb4:	6e492f6e 	cdpvs	15, 4, cr2, cr9, cr14, {3}
    3fb8:	696c6176 	stmdbvs	ip!, {r1, r2, r4, r5, r6, r8, sp, lr}^
    3fbc:	6e410064 	cdpvs	0, 4, cr0, cr1, cr4, {3}
    3fc0:	6e656963 	vnmulvs.f16	s13, s10, s7	; <UNPREDICTABLE>
    3fc4:	65522074 	ldrbvs	r2, [r2, #-116]	; 0xffffff8c
    3fc8:	2063696c 	rsbcs	r6, r3, ip, ror #18
    3fcc:	65685728 	strbvs	r5, [r8, #-1832]!	; 0xfffff8d8
    3fd0:	64206572 	strtvs	r6, [r0], #-1394	; 0xfffffa8e
    3fd4:	75206469 	strvc	r6, [r0, #-1129]!	; 0xfffffb97
    3fd8:	67696420 	strbvs	r6, [r9, -r0, lsr #8]!
    3fdc:	20746920 	rsbscs	r6, r4, r0, lsr #18
    3fe0:	293f7075 	ldmdbcs	pc!, {r0, r2, r4, r5, r6, ip, sp, lr}	; <UNPREDICTABLE>
    3fe4:	434d4d00 	movtmi	r4, #56576	; 0xdd00
    3fe8:	72614320 	rsbvc	r4, r1, #32, 6	; 0x80000000
    3fec:	42282064 	eormi	r2, r8, #100	; 0x64
    3ff0:	7473616c 	ldrbtvc	r6, [r3], #-364	; 0xfffffe94
    3ff4:	6f726620 	svcvs	0x00726620
    3ff8:	6874206d 	ldmdavs	r4!, {r0, r2, r3, r5, r6, sp}^
    3ffc:	61702065 	cmnvs	r0, r5, rrx
    4000:	293f7473 	ldmdbcs	pc!, {r0, r1, r4, r5, r6, sl, ip, sp, lr}	; <UNPREDICTABLE>
    4004:	53445300 	movtpl	r5, #17152	; 0x4300
    4008:	61432043 	cmpvs	r3, r3, asr #32
    400c:	53006472 	movwpl	r6, #1138	; 0x472
    4010:	20434844 	subcs	r4, r3, r4, asr #16
    4014:	64726143 	ldrbtvs	r6, [r2], #-323	; 0xfffffebd
    4018:	58445300 	stmdapl	r4, {r8, r9, ip, lr}^
    401c:	61432043 	cmpvs	r3, r3, asr #32
    4020:	53006472 	movwpl	r6, #1138	; 0x472
    4024:	20435544 	subcs	r5, r3, r4, asr #10
    4028:	64726143 	ldrbtvs	r6, [r2], #-323	; 0xfffffebd
    402c:	63755300 	cmnvs	r5, #0, 6
    4030:	73736563 	cmnvc	r3, #415236096	; 0x18c00000
    4034:	64614200 	strbtvs	r4, [r1], #-512	; 0xfffffe00
    4038:	67614d20 	strbvs	r4, [r1, -r0, lsr #26]!
    403c:	49006369 	stmdbmi	r0, {r0, r3, r5, r6, r8, r9, sp, lr}
    4040:	6d6f636e 	stclvs	3, cr6, [pc, #-440]!	; 3e90 <selftest+0x120>
    4044:	69746170 	ldmdbvs	r4!, {r4, r5, r6, r8, sp, lr}^
    4048:	20656c62 	rsbcs	r6, r5, r2, ror #24
    404c:	64616568 	strbtvs	r6, [r1], #-1384	; 0xfffffa98
    4050:	76207265 	strtvc	r7, [r0], -r5, ror #4
    4054:	69737265 	ldmdbvs	r3!, {r0, r2, r5, r6, r9, ip, sp, lr}^
    4058:	48006e6f 	stmdami	r0, {r0, r1, r2, r3, r5, r6, r9, sl, fp, sp, lr}
    405c:	65646165 	strbvs	r6, [r4, #-357]!	; 0xfffffe9b
    4060:	52432072 	subpl	r2, r3, #114	; 0x72
    4064:	20323343 	eorscs	r3, r2, r3, asr #6
    4068:	6d73696d 			; <UNDEFINED> instruction: 0x6d73696d
    406c:	68637461 	stmdavs	r3!, {r0, r5, r6, sl, ip, sp, lr}^
    4070:	636e4900 	cmnvs	lr, #0, 18
    4074:	6572726f 	ldrbvs	r7, [r2, #-623]!	; 0xfffffd91
    4078:	43207463 			; <UNDEFINED> instruction: 0x43207463
    407c:	49706968 	ldmdbmi	r0!, {r3, r5, r6, r8, fp, sp, lr}^
    4080:	61420064 	cmpvs	r2, r4, rrx
    4084:	6e652064 	cdpvs	0, 6, cr2, cr5, cr4, {3}
    4088:	20797274 	rsbscs	r7, r9, r4, ror r2
    408c:	6e696f70 	mcrvs	15, 3, r6, cr9, cr0, {3}
    4090:	29732874 	ldmdbcs	r3!, {r2, r4, r5, r6, fp, sp}^
    4094:	64614200 	strbtvs	r4, [r1], #-512	; 0xfffffe00
    4098:	61656820 	cmnvs	r5, r0, lsr #16
    409c:	00726564 	rsbseq	r6, r2, r4, ror #10
    40a0:	20646142 	rsbcs	r6, r4, r2, asr #2
    40a4:	61746164 	cmnvs	r4, r4, ror #2
    40a8:	43524320 	cmpmi	r2, #32, 6	; 0x80000000
    40ac:	49003233 	stmdbmi	r0, {r0, r1, r4, r5, r9, ip, sp}
    40b0:	6567616d 	strbvs	r6, [r7, #-365]!	; 0xfffffe93
    40b4:	6f6f7420 	svcvs	0x006f7420
    40b8:	67696220 	strbvs	r6, [r9, -r0, lsr #4]!
    40bc:	64614200 	strbtvs	r4, [r1], #-512	; 0xfffffe00
    40c0:	6f6f6220 	svcvs	0x006f6220
    40c4:	6f732074 	svcvs	0x00732074
    40c8:	65637275 	strbvs	r7, [r3, #-629]!	; 0xfffffd8b
    40cc:	6e692820 	cdpvs	8, 6, cr2, cr9, cr0, {1}
    40d0:	6e726574 	mrcvs	5, 3, r6, cr2, cr4, {3}
    40d4:	00296c61 	eoreq	r6, r9, r1, ror #24
    40d8:	204f2f49 	subcs	r2, pc, r9, asr #30
    40dc:	6f727245 	svcvs	0x00727245
    40e0:	68772072 	ldmdavs	r7!, {r1, r4, r5, r6, sp}^
    40e4:	20656c69 	rsbcs	r6, r5, r9, ror #24
    40e8:	64616572 	strbtvs	r6, [r1], #-1394	; 0xfffffa8e
    40ec:	00676e69 	rsbeq	r6, r7, r9, ror #28
    40f0:	6e6b6e55 	mcrvs	14, 3, r6, cr11, cr5, {2}
    40f4:	206e776f 	rsbcs	r7, lr, pc, ror #14
    40f8:	6f727265 	svcvs	0x00727265
    40fc:	Address 0x00000000000040fc is out of bounds.


Disassembly of section .rodata.rumboot_platform_setup.str1.1:

000040fe <.rodata.rumboot_platform_setup.str1.1>:
    40fe:	00304d49 	eorseq	r4, r0, r9, asr #26
    4102:	00314d49 	eorseq	r4, r1, r9, asr #26

Disassembly of section .rodata.arr:

00004108 <arr>:
    4108:	00003df3 	strdeq	r3, [r0], -r3	; <UNPREDICTABLE>
    410c:	01042000 	mrseq	r2, (UNDEF: 4)
    4110:	00002000 	andeq	r2, r0, r0
    4114:	00000000 	andeq	r0, r0, r0
    4118:	000186a0 	andeq	r8, r1, r0, lsr #13
    411c:	00000000 	andeq	r0, r0, r0
    4120:	0000497c 	andeq	r4, r0, ip, ror r9
    4124:	00000a7c 	andeq	r0, r0, ip, ror sl
	...
    4130:	00003e07 	andeq	r3, r0, r7, lsl #28
    4134:	01040000 	mrseq	r0, (UNDEF: 4)
	...
    4140:	000186a0 	andeq	r8, r1, r0, lsr #13
    4144:	00000000 	andeq	r0, r0, r0
    4148:	00004acc 	andeq	r4, r0, ip, asr #21
	...
    4158:	00003e1b 	andeq	r3, r0, fp, lsl lr
    415c:	01040000 	mrseq	r0, (UNDEF: 4)
	...
    4168:	000186a0 	andeq	r8, r1, r0, lsr #13
    416c:	00000000 	andeq	r0, r0, r0
    4170:	00004acc 	andeq	r4, r0, ip, asr #21
    4174:	00000ac4 	andeq	r0, r0, r4, asr #21
    4178:	00000ae8 	andeq	r0, r0, r8, ror #21
    417c:	00000b00 	andeq	r0, r0, r0, lsl #22
    4180:	00003e2e 	andeq	r3, r0, lr, lsr #28
    4184:	01046000 	mrseq	r6, (UNDEF: 4)
	...
    4190:	000186a0 	andeq	r8, r1, r0, lsr #13
    4194:	00000050 	andeq	r0, r0, r0, asr r0
    4198:	00004ccc 	andeq	r4, r0, ip, asr #25
	...
    41a8:	00003e43 	andeq	r3, r0, r3, asr #28
    41ac:	01046000 	mrseq	r6, (UNDEF: 4)
	...
    41b8:	000186a0 	andeq	r8, r1, r0, lsr #13
    41bc:	00000051 	andeq	r0, r0, r1, asr r0
    41c0:	00004ccc 	andeq	r4, r0, ip, asr #25
	...
    41d0:	00003e58 	andeq	r3, r0, r8, asr lr
    41d4:	01046000 	mrseq	r6, (UNDEF: 4)
	...
    41e0:	000186a0 	andeq	r8, r1, r0, lsr #13
    41e4:	00000052 	andeq	r0, r0, r2, asr r0
    41e8:	00004ccc 	andeq	r4, r0, ip, asr #25
	...
    41f8:	00003e6d 	andeq	r3, r0, sp, ror #28
    41fc:	01046000 	mrseq	r6, (UNDEF: 4)
	...
    4208:	000186a0 	andeq	r8, r1, r0, lsr #13
    420c:	00000053 	andeq	r0, r0, r3, asr r0
    4210:	00004ccc 	andeq	r4, r0, ip, asr #25
	...
    4220:	00003e82 	andeq	r3, r0, r2, lsl #29
    4224:	01043000 	mrseq	r3, (UNDEF: 4)
    4228:	00002000 	andeq	r2, r0, r0
    422c:	00000000 	andeq	r0, r0, r0
    4230:	000186a0 	andeq	r8, r1, r0, lsr #13
    4234:	00000000 	andeq	r0, r0, r0
    4238:	0000497c 	andeq	r4, r0, ip, ror r9
    423c:	00000aa0 	andeq	r0, r0, r0, lsr #21
	...

Disassembly of section .rodata.gic_swint.str1.1:

00004270 <.rodata.gic_swint.str1.1>:
    4270:	3a636967 	bcc	18de814 <rumboot_platform_stack_area_end+0x185f814>
    4274:	6e614320 	cdpvs	3, 6, cr4, cr1, cr0, {1}
    4278:	67207427 	strvs	r7, [r0, -r7, lsr #8]!
    427c:	72656e65 	rsbvc	r6, r5, #1616	; 0x650
    4280:	20657461 	rsbcs	r7, r5, r1, ror #8
    4284:	69207773 	stmdbvs	r0!, {r0, r1, r4, r5, r6, r8, r9, sl, ip, sp, lr}
    4288:	6f207172 	svcvs	0x00207172
    428c:	696c206e 	stmdbvs	ip!, {r1, r2, r3, r5, r6, sp}^
    4290:	2520656e 	strcs	r6, [r0, #-1390]!	; 0xfffffa92
    4294:	Address 0x0000000000004294 is out of bounds.


Disassembly of section .rodata.irq_ctl:

00004298 <irq_ctl>:
    4298:	00000000 	andeq	r0, r0, r0
    429c:	0000007f 	andeq	r0, r0, pc, ror r0
    42a0:	00000ca0 	andeq	r0, r0, r0, lsr #25
    42a4:	00000d48 	andeq	r0, r0, r8, asr #26
    42a8:	00000cf4 	strdeq	r0, [r0], -r4
    42ac:	00000d24 	andeq	r0, r0, r4, lsr #26
    42b0:	00000cc8 	andeq	r0, r0, r8, asr #25
	...

Disassembly of section .rodata.crc32_tab:

000042c0 <crc32_tab>:
    42c0:	00000000 	andeq	r0, r0, r0
    42c4:	77073096 			; <UNDEFINED> instruction: 0x77073096
    42c8:	ee0e612c 	adfep	f6, f6, #4.0
    42cc:	990951ba 	stmdbls	r9, {r1, r3, r4, r5, r7, r8, ip, lr}
    42d0:	076dc419 			; <UNDEFINED> instruction: 0x076dc419
    42d4:	706af48f 	rsbvc	pc, sl, pc, lsl #9
    42d8:	e963a535 	stmdb	r3!, {r0, r2, r4, r5, r8, sl, sp, pc}^
    42dc:	9e6495a3 	cdpls	5, 6, cr9, cr4, cr3, {5}
    42e0:	0edb8832 	mrceq	8, 6, r8, cr11, cr2, {1}
    42e4:	79dcb8a4 	ldmibvc	ip, {r2, r5, r7, fp, ip, sp, pc}^
    42e8:	e0d5e91e 	sbcs	lr, r5, lr, lsl r9
    42ec:	97d2d988 	ldrbls	sp, [r2, r8, lsl #19]
    42f0:	09b64c2b 	ldmibeq	r6!, {r0, r1, r3, r5, sl, fp, lr}
    42f4:	7eb17cbd 	mrcvc	12, 5, r7, cr1, cr13, {5}
    42f8:	e7b82d07 	ldr	r2, [r8, r7, lsl #26]!
    42fc:	90bf1d91 	umlalsls	r1, pc, r1, sp	; <UNPREDICTABLE>
    4300:	1db71064 	ldcne	0, cr1, [r7, #400]!	; 0x190
    4304:	6ab020f2 	bvs	fec0c6d4 <rumboot_platform_stack_area_end+0xfeb8d6d4>
    4308:	f3b97148 	vceq.i32	<illegal reg q3.5>, q4, #0
    430c:	84be41de 	ldrthi	r4, [lr], #478	; 0x1de
    4310:	1adad47d 	bne	ff6b950c <rumboot_platform_stack_area_end+0xff63a50c>
    4314:	6ddde4eb 	cfldrdvs	mvd14, [sp, #940]	; 0x3ac
    4318:	f4d4b551 			; <UNDEFINED> instruction: 0xf4d4b551
    431c:	83d385c7 	bicshi	r8, r3, #834666496	; 0x31c00000
    4320:	136c9856 	cmnne	ip, #5636096	; 0x560000
    4324:	646ba8c0 	strbtvs	sl, [fp], #-2240	; 0xfffff740
    4328:	fd62f97a 	stc2l	9, cr15, [r2, #-244]!	; 0xffffff0c	; <UNPREDICTABLE>
    432c:	8a65c9ec 	bhi	1976ae4 <rumboot_platform_stack_area_end+0x18f7ae4>
    4330:	14015c4f 	strne	r5, [r1], #-3151	; 0xfffff3b1
    4334:	63066cd9 	movwvs	r6, #27865	; 0x6cd9
    4338:	fa0f3d63 	blx	3d38cc <rumboot_platform_stack_area_end+0x3548cc>
    433c:	8d080df5 	stchi	13, cr0, [r8, #-980]	; 0xfffffc2c
    4340:	3b6e20c8 	blcc	1b8c668 <rumboot_platform_stack_area_end+0x1b0d668>
    4344:	4c69105e 	stclmi	0, cr1, [r9], #-376	; 0xfffffe88
    4348:	d56041e4 	strble	r4, [r0, #-484]!	; 0xfffffe1c
    434c:	a2677172 	rsbge	r7, r7, #-2147483620	; 0x8000001c
    4350:	3c03e4d1 	cfstrscc	mvf14, [r3], {209}	; 0xd1
    4354:	4b04d447 	blmi	139478 <rumboot_platform_stack_area_end+0xba478>
    4358:	d20d85fd 	andle	r8, sp, #1061158912	; 0x3f400000
    435c:	a50ab56b 	strge	fp, [sl, #-1387]	; 0xfffffa95
    4360:	35b5a8fa 	ldrcc	sl, [r5, #2298]!	; 0x8fa
    4364:	42b2986c 	adcsmi	r9, r2, #108, 16	; 0x6c0000
    4368:	dbbbc9d6 	blle	feef6ac8 <rumboot_platform_stack_area_end+0xfee77ac8>
    436c:	acbcf940 			; <UNDEFINED> instruction: 0xacbcf940
    4370:	32d86ce3 	sbcscc	r6, r8, #58112	; 0xe300
    4374:	45df5c75 	ldrbmi	r5, [pc, #3189]	; 4ff1 <errors+0x16d>
    4378:	dcd60dcf 	ldclle	13, cr0, [r6], {207}	; 0xcf
    437c:	abd13d59 	blge	ff4538e8 <rumboot_platform_stack_area_end+0xff3d48e8>
    4380:	26d930ac 	ldrbcs	r3, [r9], ip, lsr #1
    4384:	51de003a 	bicspl	r0, lr, sl, lsr r0
    4388:	c8d75180 	ldmgt	r7, {r7, r8, ip, lr}^
    438c:	bfd06116 	svclt	0x00d06116
    4390:	21b4f4b5 			; <UNDEFINED> instruction: 0x21b4f4b5
    4394:	56b3c423 	ldrtpl	ip, [r3], r3, lsr #8
    4398:	cfba9599 	svcgt	0x00ba9599
    439c:	b8bda50f 	poplt	{r0, r1, r2, r3, r8, sl, sp, pc}
    43a0:	2802b89e 	stmdacs	r2, {r1, r2, r3, r4, r7, fp, ip, sp, pc}
    43a4:	5f058808 	svcpl	0x00058808
    43a8:	c60cd9b2 			; <UNDEFINED> instruction: 0xc60cd9b2
    43ac:	b10be924 	tstlt	fp, r4, lsr #18
    43b0:	2f6f7c87 	svccs	0x006f7c87
    43b4:	58684c11 	stmdapl	r8!, {r0, r4, sl, fp, lr}^
    43b8:	c1611dab 	cmngt	r1, fp, lsr #27
    43bc:	b6662d3d 			; <UNDEFINED> instruction: 0xb6662d3d
    43c0:	76dc4190 			; <UNDEFINED> instruction: 0x76dc4190
    43c4:	01db7106 	bicseq	r7, fp, r6, lsl #2
    43c8:	98d220bc 	ldmls	r2, {r2, r3, r4, r5, r7, sp}^
    43cc:	efd5102a 	svc	0x00d5102a
    43d0:	71b18589 			; <UNDEFINED> instruction: 0x71b18589
    43d4:	06b6b51f 	ssateq	fp, #23, pc, lsl #10	; <UNPREDICTABLE>
    43d8:	9fbfe4a5 	svcls	0x00bfe4a5
    43dc:	e8b8d433 	ldm	r8!, {r0, r1, r4, r5, sl, ip, lr, pc}
    43e0:	7807c9a2 	stmdavc	r7, {r1, r5, r7, r8, fp, lr, pc}
    43e4:	0f00f934 	svceq	0x0000f934
    43e8:	9609a88e 	strls	sl, [r9], -lr, lsl #17
    43ec:	e10e9818 	tst	lr, r8, lsl r8
    43f0:	7f6a0dbb 	svcvc	0x006a0dbb
    43f4:	086d3d2d 	stmdaeq	sp!, {r0, r2, r3, r5, r8, sl, fp, ip, sp}^
    43f8:	91646c97 			; <UNDEFINED> instruction: 0x91646c97
    43fc:	e6635c01 	strbt	r5, [r3], -r1, lsl #24
    4400:	6b6b51f4 	blvs	1ad8bd8 <rumboot_platform_stack_area_end+0x1a59bd8>
    4404:	1c6c6162 	stfnee	f6, [ip], #-392	; 0xfffffe78
    4408:	856530d8 	strbhi	r3, [r5, #-216]!	; 0xffffff28
    440c:	f262004e 	vhadd.s32	q8, q1, q7
    4410:	6c0695ed 	cfstr32vs	mvfx9, [r6], {237}	; 0xed
    4414:	1b01a57b 	blne	6da08 <rumboot_im0_heap_end+0xda08>
    4418:	8208f4c1 	andhi	pc, r8, #-1056964608	; 0xc1000000
    441c:	f50fc457 			; <UNDEFINED> instruction: 0xf50fc457
    4420:	65b0d9c6 	ldrvs	sp, [r0, #2502]!	; 0x9c6
    4424:	12b7e950 	adcsne	lr, r7, #80, 18	; 0x140000
    4428:	8bbeb8ea 	blhi	fefb27d8 <rumboot_platform_stack_area_end+0xfef337d8>
    442c:	fcb9887c 	ldc2	8, cr8, [r9], #496	; 0x1f0
    4430:	62dd1ddf 	sbcsvs	r1, sp, #14272	; 0x37c0
    4434:	15da2d49 	ldrbne	r2, [sl, #3401]	; 0xd49
    4438:	8cd37cf3 	ldclhi	12, cr7, [r3], {243}	; 0xf3
    443c:	fbd44c65 	blx	ff5175da <rumboot_platform_stack_area_end+0xff4985da>
    4440:	4db26158 	ldfmis	f6, [r2, #352]!	; 0x160
    4444:	3ab551ce 	bcc	fed58b84 <rumboot_platform_stack_area_end+0xfecd9b84>
    4448:	a3bc0074 			; <UNDEFINED> instruction: 0xa3bc0074
    444c:	d4bb30e2 	ldrtle	r3, [fp], #226	; 0xe2
    4450:	4adfa541 	bmi	ff7ed95c <rumboot_platform_stack_area_end+0xff76e95c>
    4454:	3dd895d7 	cfldr64cc	mvdx9, [r8, #860]	; 0x35c
    4458:	a4d1c46d 	ldrbge	ip, [r1], #1133	; 0x46d
    445c:	d3d6f4fb 	bicsle	pc, r6, #-83886080	; 0xfb000000
    4460:	4369e96a 	cmnmi	r9, #1736704	; 0x1a8000
    4464:	346ed9fc 	strbtcc	sp, [lr], #-2556	; 0xfffff604
    4468:	ad678846 	stclge	8, cr8, [r7, #-280]!	; 0xfffffee8
    446c:	da60b8d0 	ble	18327b4 <rumboot_platform_stack_area_end+0x17b37b4>
    4470:	44042d73 	strmi	r2, [r4], #-3443	; 0xfffff28d
    4474:	33031de5 	movwcc	r1, #15845	; 0x3de5
    4478:	aa0a4c5f 	bge	2975fc <rumboot_platform_stack_area_end+0x2185fc>
    447c:	dd0d7cc9 	stcle	12, cr7, [sp, #-804]	; 0xfffffcdc
    4480:	5005713c 	andpl	r7, r5, ip, lsr r1
    4484:	270241aa 	strcs	r4, [r2, -sl, lsr #3]
    4488:	be0b1010 	mcrlt	0, 0, r1, cr11, cr0, {0}
    448c:	c90c2086 	stmdbgt	ip, {r1, r2, r7, sp}
    4490:	5768b525 	strbpl	fp, [r8, -r5, lsr #10]!
    4494:	206f85b3 	strhtcs	r8, [pc], #-83
    4498:	b966d409 	stmdblt	r6!, {r0, r3, sl, ip, lr, pc}^
    449c:	ce61e49f 	mcrgt	4, 3, lr, cr1, cr15, {4}
    44a0:	5edef90e 	vfnmspl.f16	s31, s28, s28	; <UNPREDICTABLE>
    44a4:	29d9c998 	ldmibcs	r9, {r3, r4, r7, r8, fp, lr, pc}^
    44a8:	b0d09822 	sbcslt	r9, r0, r2, lsr #16
    44ac:	c7d7a8b4 			; <UNDEFINED> instruction: 0xc7d7a8b4
    44b0:	59b33d17 	ldmibpl	r3!, {r0, r1, r2, r4, r8, sl, fp, ip, sp}
    44b4:	2eb40d81 	cdpcs	13, 11, cr0, cr4, cr1, {4}
    44b8:	b7bd5c3b 			; <UNDEFINED> instruction: 0xb7bd5c3b
    44bc:	c0ba6cad 	adcsgt	r6, sl, sp, lsr #25
    44c0:	edb88320 	ldc	3, cr8, [r8, #128]!	; 0x80
    44c4:	9abfb3b6 	bls	feff13a4 <rumboot_platform_stack_area_end+0xfef723a4>
    44c8:	03b6e20c 			; <UNDEFINED> instruction: 0x03b6e20c
    44cc:	74b1d29a 	ldrtvc	sp, [r1], #666	; 0x29a
    44d0:	ead54739 	b	ff5561bc <rumboot_platform_stack_area_end+0xff4d71bc>
    44d4:	9dd277af 	ldclls	7, cr7, [r2, #700]	; 0x2bc
    44d8:	04db2615 	ldrbeq	r2, [fp], #1557	; 0x615
    44dc:	73dc1683 	bicsvc	r1, ip, #137363456	; 0x8300000
    44e0:	e3630b12 	cmn	r3, #18432	; 0x4800
    44e4:	94643b84 	strbtls	r3, [r4], #-2948	; 0xfffff47c
    44e8:	0d6d6a3e 	vpusheq	{s13-s74}
    44ec:	7a6a5aa8 	bvc	1a9af94 <rumboot_platform_stack_area_end+0x1a1bf94>
    44f0:	e40ecf0b 	str	ip, [lr], #-3851	; 0xfffff0f5
    44f4:	9309ff9d 	movwls	pc, #40861	; 0x9f9d	; <UNPREDICTABLE>
    44f8:	0a00ae27 	beq	2fd9c <__init_array_end+0x2abca>
    44fc:	7d079eb1 	stcvc	14, cr9, [r7, #-708]	; 0xfffffd3c
    4500:	f00f9344 			; <UNDEFINED> instruction: 0xf00f9344
    4504:	8708a3d2 			; <UNDEFINED> instruction: 0x8708a3d2
    4508:	1e01f268 	cdpne	2, 0, cr15, cr1, cr8, {3}
    450c:	6906c2fe 	stmdbvs	r6, {r1, r2, r3, r4, r5, r6, r7, r9, lr, pc}
    4510:	f762575d 			; <UNDEFINED> instruction: 0xf762575d
    4514:	806567cb 	rsbhi	r6, r5, fp, asr #15
    4518:	196c3671 	stmdbne	ip!, {r0, r4, r5, r6, r9, sl, ip, sp}^
    451c:	6e6b06e7 	cdpvs	6, 6, cr0, cr11, cr7, {7}
    4520:	fed41b76 	mrc2	11, 6, r1, cr4, cr6, {3}	; <UNPREDICTABLE>
    4524:	89d32be0 	ldmibhi	r3, {r5, r6, r7, r8, r9, fp, sp}^
    4528:	10da7a5a 	sbcsne	r7, sl, sl, asr sl
    452c:	67dd4acc 	ldrbvs	r4, [sp, ip, asr #21]
    4530:	f9b9df6f 			; <UNDEFINED> instruction: 0xf9b9df6f
    4534:	8ebeeff9 	mrchi	15, 5, lr, cr14, cr9, {7}
    4538:	17b7be43 	ldrne	fp, [r7, r3, asr #28]!
    453c:	60b08ed5 	ldrsbtvs	r8, [r0], r5
    4540:	d6d6a3e8 	ldrble	sl, [r6], r8, ror #7
    4544:	a1d1937e 	bicsge	r9, r1, lr, ror r3
    4548:	38d8c2c4 	ldmcc	r8, {r2, r6, r7, r9, lr, pc}^
    454c:	4fdff252 	svcmi	0x00dff252
    4550:	d1bb67f1 			; <UNDEFINED> instruction: 0xd1bb67f1
    4554:	a6bc5767 	ldrtge	r5, [ip], r7, ror #14
    4558:	3fb506dd 	svccc	0x00b506dd
    455c:	48b2364b 	ldmmi	r2!, {r0, r1, r3, r6, r9, sl, ip, sp}
    4560:	d80d2bda 	stmdale	sp, {r1, r3, r4, r6, r7, r8, r9, fp, sp}
    4564:	af0a1b4c 	svcge	0x000a1b4c
    4568:	36034af6 			; <UNDEFINED> instruction: 0x36034af6
    456c:	41047a60 	tstmi	r4, r0, ror #20
    4570:	df60efc3 	svcle	0x0060efc3
    4574:	a867df55 	stmdage	r7!, {r0, r2, r4, r6, r8, r9, sl, fp, ip, lr, pc}^
    4578:	316e8eef 	cmncc	lr, pc, ror #29
    457c:	4669be79 			; <UNDEFINED> instruction: 0x4669be79
    4580:	cb61b38c 	blgt	18713b8 <rumboot_platform_stack_area_end+0x17f23b8>
    4584:	bc66831a 	stcllt	3, cr8, [r6], #-104	; 0xffffff98
    4588:	256fd2a0 	strbcs	sp, [pc, #-672]!	; 42f0 <crc32_tab+0x30>
    458c:	5268e236 	rsbpl	lr, r8, #1610612739	; 0x60000003
    4590:	cc0c7795 	stcgt	7, cr7, [ip], {149}	; 0x95
    4594:	bb0b4703 	bllt	2d61a8 <rumboot_platform_stack_area_end+0x2571a8>
    4598:	220216b9 	andcs	r1, r2, #193986560	; 0xb900000
    459c:	5505262f 	strpl	r2, [r5, #-1583]	; 0xfffff9d1
    45a0:	c5ba3bbe 	ldrgt	r3, [sl, #3006]!	; 0xbbe
    45a4:	b2bd0b28 	adcslt	r0, sp, #40, 22	; 0xa000
    45a8:	2bb45a92 	blcs	fed1aff8 <rumboot_platform_stack_area_end+0xfec9bff8>
    45ac:	5cb36a04 	vldmiapl	r3!, {s12-s15}
    45b0:	c2d7ffa7 	sbcsgt	pc, r7, #668	; 0x29c
    45b4:	b5d0cf31 	ldrblt	ip, [r0, #3889]	; 0xf31
    45b8:	2cd99e8b 	ldclcs	14, cr9, [r9], {139}	; 0x8b
    45bc:	5bdeae1d 	blpl	ff7afe38 <rumboot_platform_stack_area_end+0xff730e38>
    45c0:	9b64c2b0 	blls	1935088 <rumboot_platform_stack_area_end+0x18b6088>
    45c4:	ec63f226 	sfm	f7, 3, [r3], #-152	; 0xffffff68
    45c8:	756aa39c 	strbvc	sl, [sl, #-924]!	; 0xfffffc64
    45cc:	026d930a 	rsbeq	r9, sp, #671088640	; 0x28000000
    45d0:	9c0906a9 	stcls	6, cr0, [r9], {169}	; 0xa9
    45d4:	eb0e363f 	bl	391ed8 <rumboot_platform_stack_area_end+0x312ed8>
    45d8:	72076785 	andvc	r6, r7, #34865152	; 0x2140000
    45dc:	05005713 	streq	r5, [r0, #-1811]	; 0xfffff8ed
    45e0:	95bf4a82 	ldrls	r4, [pc, #2690]!	; 506a <errors+0x1e6>
    45e4:	e2b87a14 	adcs	r7, r8, #20, 20	; 0x14000
    45e8:	7bb12bae 	blvc	fec4f4a8 <rumboot_platform_stack_area_end+0xfebd04a8>
    45ec:	0cb61b38 	vldmiaeq	r6!, {d1-d28}
    45f0:	92d28e9b 	sbcsls	r8, r2, #2480	; 0x9b0
    45f4:	e5d5be0d 	ldrb	fp, [r5, #3597]	; 0xe0d
    45f8:	7cdcefb7 	ldclvc	15, cr14, [ip], {183}	; 0xb7
    45fc:	0bdbdf21 	bleq	ff6fc288 <rumboot_platform_stack_area_end+0xff67d288>
    4600:	86d3d2d4 			; <UNDEFINED> instruction: 0x86d3d2d4
    4604:	f1d4e242 			; <UNDEFINED> instruction: 0xf1d4e242
    4608:	68ddb3f8 	ldmvs	sp, {r3, r4, r5, r6, r7, r8, r9, ip, sp, pc}^
    460c:	1fda836e 	svcne	0x00da836e
    4610:	81be16cd 			; <UNDEFINED> instruction: 0x81be16cd
    4614:	f6b9265b 			; <UNDEFINED> instruction: 0xf6b9265b
    4618:	6fb077e1 	svcvs	0x00b077e1
    461c:	18b74777 	ldmne	r7!, {r0, r1, r2, r4, r5, r6, r8, r9, sl, lr}
    4620:	88085ae6 	stmdahi	r8, {r1, r2, r5, r6, r7, r9, fp, ip, lr}
    4624:	ff0f6a70 			; <UNDEFINED> instruction: 0xff0f6a70
    4628:	66063bca 	strvs	r3, [r6], -sl, asr #23
    462c:	11010b5c 	tstne	r1, ip, asr fp
    4630:	8f659eff 	svchi	0x00659eff
    4634:	f862ae69 			; <UNDEFINED> instruction: 0xf862ae69
    4638:	616bffd3 	ldrdvs	pc, [fp, #-243]!	; 0xffffff0d
    463c:	166ccf45 	strbtne	ip, [ip], -r5, asr #30
    4640:	a00ae278 	andge	lr, sl, r8, ror r2
    4644:	d70dd2ee 	strle	sp, [sp, -lr, ror #5]
    4648:	4e048354 	mcrmi	3, 0, r8, cr4, cr4, {2}
    464c:	3903b3c2 	stmdbcc	r3, {r1, r6, r7, r8, r9, ip, sp, pc}
    4650:	a7672661 	strbge	r2, [r7, -r1, ror #12]!
    4654:	d06016f7 	strdle	r1, [r0], #-103	; 0xffffff99	; <UNPREDICTABLE>
    4658:	4969474d 	stmdbmi	r9!, {r0, r2, r3, r6, r8, r9, sl, lr}^
    465c:	3e6e77db 	mcrcc	7, 3, r7, cr14, cr11, {6}
    4660:	aed16a4a 	vfnmage.f32	s13, s2, s20
    4664:	d9d65adc 	ldmible	r6, {r2, r3, r4, r6, r7, r9, fp, ip, lr}^
    4668:	40df0b66 	sbcsmi	r0, pc, r6, ror #22
    466c:	37d83bf0 			; <UNDEFINED> instruction: 0x37d83bf0
    4670:	a9bcae53 	ldmibge	ip!, {r0, r1, r4, r6, r9, sl, fp, sp, pc}
    4674:	debb9ec5 	cdple	14, 11, cr9, cr11, cr5, {6}
    4678:	47b2cf7f 			; <UNDEFINED> instruction: 0x47b2cf7f
    467c:	30b5ffe9 	adcscc	pc, r5, r9, ror #31
    4680:	bdbdf21c 	lfmlt	f7, 1, [sp, #112]!	; 0x70
    4684:	cabac28a 	bgt	feeb50b4 <rumboot_platform_stack_area_end+0xfee360b4>
    4688:	53b39330 			; <UNDEFINED> instruction: 0x53b39330
    468c:	24b4a3a6 	ldrtcs	sl, [r4], #934	; 0x3a6
    4690:	bad03605 	blt	ff411eac <rumboot_platform_stack_area_end+0xff392eac>
    4694:	cdd70693 	ldclgt	6, cr0, [r7, #588]	; 0x24c
    4698:	54de5729 	ldrbpl	r5, [lr], #1833	; 0x729
    469c:	23d967bf 	bicscs	r6, r9, #50069504	; 0x2fc0000
    46a0:	b3667a2e 	cmnlt	r6, #188416	; 0x2e000
    46a4:	c4614ab8 	strbtgt	r4, [r1], #-2744	; 0xfffff548
    46a8:	5d681b02 	vstmdbpl	r8!, {d17}
    46ac:	2a6f2b94 	bcs	1bcf504 <rumboot_platform_stack_area_end+0x1b50504>
    46b0:	b40bbe37 	strlt	fp, [fp], #-3639	; 0xfffff1c9
    46b4:	c30c8ea1 	movwgt	r8, #52897	; 0xcea1
    46b8:	5a05df1b 	bpl	17c32c <rumboot_platform_stack_area_end+0xfd32c>
    46bc:	2d02ef8d 	stccs	15, cr14, [r2, #-564]	; 0xfffffdcc

Disassembly of section .rodata.rumboot_logo:

000046c0 <rumboot_logo>:
    46c0:	200a0a0a 	andcs	r0, sl, sl, lsl #20
    46c4:	52202020 	eorpl	r2, r0, #32
    46c8:	6f4d2043 	svcvs	0x004d2043
    46cc:	656c7564 	strbvs	r7, [ip, #-1380]!	; 0xfffffa9c
    46d0:	20207327 	eorcs	r7, r0, r7, lsr #6
    46d4:	20202020 	eorcs	r2, r0, r0, lsr #32
    46d8:	20202020 	eorcs	r2, r0, r0, lsr #32
    46dc:	20205f5f 	eorcs	r5, r0, pc, asr pc
    46e0:	20202020 	eorcs	r2, r0, r0, lsr #32
    46e4:	20202020 	eorcs	r2, r0, r0, lsr #32
    46e8:	20202020 	eorcs	r2, r0, r0, lsr #32
    46ec:	5f5f2020 	svcpl	0x005f2020
    46f0:	20200a20 	eorcs	r0, r0, r0, lsr #20
    46f4:	5f5f5f20 	svcpl	0x005f5f20
    46f8:	5f5f5f5f 	svcpl	0x005f5f5f
    46fc:	5f5f2020 	svcpl	0x005f2020
    4700:	5f5f5f5f 	svcpl	0x005f5f5f
    4704:	5f5f5f20 	svcpl	0x005f5f20
    4708:	202f2020 	eorcs	r2, pc, r0, lsr #32
    470c:	20205f2f 	eorcs	r5, r0, pc, lsr #30
    4710:	5f5f5f5f 	svcpl	0x005f5f5f
    4714:	5f5f2020 	svcpl	0x005f2020
    4718:	20205f5f 	eorcs	r5, r0, pc, asr pc
    471c:	5f2f202f 	svcpl	0x002f202f
    4720:	2f20200a 	svccs	0x0020200a
    4724:	5f5f5f20 	svcpl	0x005f5f20
    4728:	202f202f 	eorcs	r2, pc, pc, lsr #32
    472c:	202f202f 	eorcs	r2, pc, pc, lsr #32
    4730:	60205f5f 	eorvs	r5, r0, pc, asr pc
    4734:	5c205f5f 	stcpl	15, cr5, [r0], #-380	; 0xfffffe84
    4738:	5f5f202f 	svcpl	0x005f202f
    473c:	202f5c20 	eorcs	r5, pc, r0, lsr #24
    4740:	5c205f5f 	stcpl	15, cr5, [r0], #-380	; 0xfffffe84
    4744:	5f5f202f 	svcpl	0x005f202f
    4748:	202f5c20 	eorcs	r5, pc, r0, lsr #24
    474c:	0a2f5f5f 	beq	bdc4d0 <rumboot_platform_stack_area_end+0xb5d4d0>
    4750:	2f202f20 	svccs	0x00202f20
    4754:	202f2020 	eorcs	r2, pc, r0, lsr #32
    4758:	202f5f2f 	eorcs	r5, pc, pc, lsr #30
    475c:	202f202f 	eorcs	r2, pc, pc, lsr #32
    4760:	202f202f 	eorcs	r2, pc, pc, lsr #32
    4764:	202f202f 	eorcs	r2, pc, pc, lsr #32
    4768:	202f5f2f 	eorcs	r5, pc, pc, lsr #30
    476c:	5f2f202f 	svcpl	0x002f202f
    4770:	202f202f 	eorcs	r2, pc, pc, lsr #32
    4774:	202f5f2f 	eorcs	r5, pc, pc, lsr #30
    4778:	5f2f202f 	svcpl	0x002f202f
    477c:	2f0a2020 	svccs	0x000a2020
    4780:	20202f5f 	eorcs	r2, r0, pc, asr pc
    4784:	5f5f5c20 	svcpl	0x005f5c20
    4788:	5f2f5f2c 	svcpl	0x002f5f2c
    478c:	5f2f202f 	svcpl	0x002f202f
    4790:	5f2f202f 	svcpl	0x002f202f
    4794:	5f2e5f2f 	svcpl	0x002e5f2f
    4798:	5c2f5f5f 	stcpl	15, cr5, [pc], #-380	; 4624 <crc32_tab+0x364>
    479c:	5f5f5f5f 	svcpl	0x005f5f5f
    47a0:	5f5f5c2f 	svcpl	0x005f5c2f
    47a4:	5c2f5f5f 	stcpl	15, cr5, [pc], #-380	; 4630 <crc32_tab+0x370>
    47a8:	202f5f5f 	eorcs	r5, pc, pc, asr pc	; <UNPREDICTABLE>
    47ac:	Address 0x00000000000047ac is out of bounds.


Disassembly of section .rodata.version:

000047af <version>:
    47af:	69736162 	ldmdbvs	r3!, {r1, r5, r6, r8, sp, lr}^
    47b3:	207c2073 	rsbscs	r2, ip, r3, ror r0
    47b7:	646f7250 	strbtvs	r7, [pc], #-592	; 47bf <version+0x10>
    47bb:	69746375 	ldmdbvs	r4!, {r0, r2, r4, r5, r6, r8, r9, sp, lr}^
    47bf:	7c206e6f 	stcvc	14, cr6, [r0], #-444	; 0xfffffe44
    47c3:	41454820 	cmpmi	r5, r0, lsr #16
    47c7:	31632d44 	cmncc	r3, r4, asr #26
    47cb:	61366133 	teqvs	r6, r3, lsr r1
    47cf:	Address 0x00000000000047cf is out of bounds.


Disassembly of section .rodata.rumboot_number.str1.1:

000047d2 <.rodata.rumboot_number.str1.1>:
    47d2:	33323130 	teqcc	r2, #48, 2
    47d6:	37363534 			; <UNDEFINED> instruction: 0x37363534
    47da:	62613938 	rsbvs	r3, r1, #56, 18	; 0xe0000
    47de:	66656463 	strbtvs	r6, [r5], -r3, ror #8
    47e2:	6a696867 	bvs	1a5e986 <rumboot_platform_stack_area_end+0x19df986>
    47e6:	6e6d6c6b 	cdpvs	12, 6, cr6, cr13, cr11, {3}
    47ea:	7271706f 	rsbsvc	r7, r1, #111	; 0x6f
    47ee:	76757473 			; <UNDEFINED> instruction: 0x76757473
    47f2:	7a797877 	bvc	1e629d6 <rumboot_platform_stack_area_end+0x1de39d6>
    47f6:	32313000 	eorscc	r3, r1, #0
    47fa:	36353433 			; <UNDEFINED> instruction: 0x36353433
    47fe:	41393837 	teqmi	r9, r7, lsr r8
    4802:	45444342 	strbmi	r4, [r4, #-834]	; 0xfffffcbe
    4806:	49484746 	stmdbmi	r8, {r1, r2, r6, r8, r9, sl, lr}^
    480a:	4d4c4b4a 	vstrmi	d20, [ip, #-296]	; 0xfffffed8
    480e:	51504f4e 	cmppl	r0, lr, asr #30
    4812:	55545352 	ldrbpl	r5, [r4, #-850]	; 0xfffffcae
    4816:	59585756 	ldmdbpl	r8, {r1, r2, r4, r6, r8, r9, sl, ip, lr}^
    481a:	Address 0x000000000000481a is out of bounds.


Disassembly of section .rodata.rumboot_vprintf.str1.1:

0000481c <.rodata.rumboot_vprintf.str1.1>:
    481c:	4c554e3c 	mrrcmi	14, 3, r4, r5, cr12
    4820:	Address 0x0000000000004820 is out of bounds.


Disassembly of section .rodata.test_suite_run_single.str1.1:

00004823 <.rodata.test_suite_run_single.str1.1>:
    4823:	53534150 	cmppl	r3, #80, 2
    4827:	46004445 	strmi	r4, [r0], -r5, asr #8
    482b:	454c4941 	strbmi	r4, [ip, #-2369]	; 0xfffff6bf
    482f:	2d2d0044 	stccs	0, cr0, [sp, #-272]!	; 0xfffffef0
    4833:	7845202d 	stmdavc	r5, {r0, r2, r3, r5, sp}^
    4837:	74756365 	ldrbtvc	r6, [r5], #-869	; 0xfffffc9b
    483b:	20676e69 	rsbcs	r6, r7, r9, ror #28
    483f:	74736574 	ldrbtvc	r6, [r3], #-1396	; 0xfffffa8c
    4843:	7325203a 			; <UNDEFINED> instruction: 0x7325203a
    4847:	25202d20 	strcs	r2, [r0, #-3360]!	; 0xfffff2e0
    484b:	2d2d2073 	stccs	0, cr2, [sp, #-460]!	; 0xfffffe34
    484f:	000a202d 	andeq	r2, sl, sp, lsr #32
    4853:	202d2d2d 	eorcs	r2, sp, sp, lsr #26
    4857:	50494b53 	subpl	r4, r9, r3, asr fp
    485b:	20444550 	subcs	r4, r4, r0, asr r5
    485f:	0a2d2d2d 	beq	b4fd1b <rumboot_platform_stack_area_end+0xad0d1b>
    4863:	2d2d2d00 	stccs	13, cr2, [sp, #-0]
    4867:	20732520 	rsbscs	r2, r3, r0, lsr #10
    486b:	0a2d2d2d 	beq	b4fd27 <rumboot_platform_stack_area_end+0xad0d27>
	...

Disassembly of section .rodata.exception_names:

00004870 <exception_names>:
    4870:	00003e96 	muleq	r0, r6, lr
    4874:	00003ea5 	andeq	r3, r0, r5, lsr #29
    4878:	00003eb0 			; <UNDEFINED> instruction: 0x00003eb0
    487c:	00003ec6 	andeq	r3, r0, r6, asr #29
    4880:	00003ed9 	ldrdeq	r3, [r0], -r9
    4884:	00003ee7 	andeq	r3, r0, r7, ror #29
    4888:	00003ef4 	strdeq	r3, [r0], -r4
    488c:	00003f01 	andeq	r3, r0, r1, lsl #30
    4890:	00003f0b 	andeq	r3, r0, fp, lsl #30
    4894:	00003f13 	andeq	r3, r0, r3, lsl pc
    4898:	00003f2e 	andeq	r3, r0, lr, lsr #30
    489c:	00003f3a 	andeq	r3, r0, sl, lsr pc
    48a0:	00003f5a 	andeq	r3, r0, sl, asr pc
    48a4:	00003f66 	andeq	r3, r0, r6, ror #30
    48a8:	00003f7b 	andeq	r3, r0, fp, ror pc
    48ac:	00003f8a 	andeq	r3, r0, sl, lsl #31
    48b0:	00003f99 	muleq	r0, r9, pc	; <UNPREDICTABLE>
    48b4:	00003fa8 	andeq	r3, r0, r8, lsr #31

Disassembly of section .rodata.process_irq.str1.1:

000048b8 <.rodata.process_irq.str1.1>:
    48b8:	41544146 	cmpmi	r4, r6, asr #2
    48bc:	55203a4c 	strpl	r3, [r0, #-2636]!	; 0xfffff5b4
    48c0:	6e61686e 	cdpvs	8, 6, cr6, cr1, cr14, {3}
    48c4:	64656c64 	strbtvs	r6, [r5], #-3172	; 0xfffff39c
    48c8:	51524920 	cmppl	r2, r0, lsr #18
    48cc:	20642520 	rsbcs	r2, r4, r0, lsr #10
    48d0:	6e656877 	mcrvs	8, 3, r6, cr5, cr7, {3}
    48d4:	206f6e20 	rsbcs	r6, pc, r0, lsr #28
    48d8:	69746361 	ldmdbvs	r4!, {r0, r5, r6, r8, r9, sp, lr}^
    48dc:	69206576 	stmdbvs	r0!, {r1, r2, r4, r5, r6, r8, sl, sp, lr}
    48e0:	74207172 	strtvc	r7, [r0], #-370	; 0xfffffe8e
    48e4:	656c6261 	strbvs	r6, [ip, #-609]!	; 0xfffffd9f
    48e8:	65727020 	ldrbvs	r7, [r2, #-32]!	; 0xffffffe0
    48ec:	746e6573 	strbtvc	r6, [lr], #-1395	; 0xfffffa8d
    48f0:	4146000a 	cmpmi	r6, sl
    48f4:	3a4c4154 	bcc	1314e4c <rumboot_platform_stack_area_end+0x1295e4c>
    48f8:	686e5520 	stmdavs	lr!, {r5, r8, sl, ip, lr}^
    48fc:	6c646e61 	stclvs	14, cr6, [r4], #-388	; 0xfffffe7c
    4900:	49206465 	stmdbmi	r0!, {r0, r2, r5, r6, sl, sp, lr}
    4904:	25205152 	strcs	r5, [r0, #-338]!	; 0xfffffeae
    4908:	Address 0x0000000000004908 is out of bounds.


Disassembly of section .rodata.rumboot_irq_core_dispatch.str1.1:

0000490b <.rodata.rumboot_irq_core_dispatch.str1.1>:
    490b:	45435845 	strbmi	r5, [r3, #-2117]	; 0xfffff7bb
    490f:	4f495450 	svcmi	0x00495450
    4913:	25203a4e 	strcs	r3, [r0, #-2638]!	; 0xfffff5b2
    4917:	000a2073 	andeq	r2, sl, r3, ror r0

Disassembly of section .rodata.rumboot_irq_register_controller.str1.1:

0000491b <.rodata.rumboot_irq_register_controller.str1.1>:
    491b:	3a717269 	bcc	1c612c7 <rumboot_platform_stack_area_end+0x1be22c7>
    491f:	69614620 	stmdbvs	r1!, {r5, r9, sl, lr}^
    4923:	2064656c 	rsbcs	r6, r4, ip, ror #10
    4927:	72206f74 	eorvc	r6, r0, #116, 30	; 0x1d0
    492b:	73696765 	cmnvc	r9, #26476544	; 0x1940000
    492f:	20726574 	rsbscs	r6, r2, r4, ror r5
    4933:	20717269 	rsbscs	r7, r1, r9, ror #4
    4937:	746e6f63 	strbtvc	r6, [lr], #-3939	; 0xfffff09d
    493b:	6c6c6f72 	stclvs	15, cr6, [ip], #-456	; 0xfffffe38
    493f:	25207265 	strcs	r7, [r0, #-613]!	; 0xfffffd9b
    4943:	50203a73 	eorpl	r3, r0, r3, ror sl
    4947:	7361656c 	cmnvc	r1, #108, 10	; 0x1b000000
    494b:	6e692065 	cdpvs	0, 6, cr2, cr9, cr5, {3}
    494f:	61657263 	cmnvs	r5, r3, ror #4
    4953:	52206573 	eorpl	r6, r0, #482344960	; 0x1cc00000
    4957:	4f424d55 	svcmi	0x00424d55
    495b:	505f544f 	subspl	r5, pc, pc, asr #8
    495f:	4654414c 	ldrbmi	r4, [r4], -ip, asr #2
    4963:	5f4d524f 	svcpl	0x004d524f
    4967:	5f4d554e 	svcpl	0x004d554e
    496b:	5f515249 	svcpl	0x00515249
    496f:	544e4f43 	strbpl	r4, [lr], #-3907	; 0xfffff0bd
    4973:	4c4c4f52 	mcrrmi	15, 5, r4, ip, cr2
    4977:	0a535245 	beq	14d9293 <rumboot_platform_stack_area_end+0x145a293>
	...

Disassembly of section .rodata.g_bootmodule_sdio:

0000497c <g_bootmodule_sdio>:
    497c:	0000002c 	andeq	r0, r0, ip, lsr #32
    4980:	00000200 	andeq	r0, r0, r0, lsl #4
    4984:	00001d08 	andeq	r1, r0, r8, lsl #26
    4988:	00001bbc 			; <UNDEFINED> instruction: 0x00001bbc
    498c:	00001c38 	andeq	r1, r0, r8, lsr ip

Disassembly of section .rodata.sd_card_type_names:

00004990 <sd_card_type_names>:
    4990:	00003fae 	andeq	r3, r0, lr, lsr #31
    4994:	00003fbe 			; <UNDEFINED> instruction: 0x00003fbe
    4998:	00003fe5 	andeq	r3, r0, r5, ror #31
    499c:	00004005 	andeq	r4, r0, r5
    49a0:	0000400f 	andeq	r4, r0, pc
    49a4:	00004019 	andeq	r4, r0, r9, lsl r0
    49a8:	00004023 	andeq	r4, r0, r3, lsr #32

Disassembly of section .rodata.sdio_init.str1.1:

000049ac <.rodata.sdio_init.str1.1>:
    49ac:	746f6f62 	strbtvc	r6, [pc], #-3938	; 49b4 <sd_card_type_names+0x24>
    49b0:	7325203a 			; <UNDEFINED> instruction: 0x7325203a
    49b4:	6143203a 	cmpvs	r3, sl, lsr r0
    49b8:	64206472 	strtvs	r6, [r0], #-1138	; 0xfffffb8e
    49bc:	276e6469 	strbcs	r6, [lr, -r9, ror #8]!
    49c0:	656c2074 	strbvs	r2, [ip, #-116]!	; 0xffffff8c
    49c4:	20657661 	rsbcs	r7, r5, r1, ror #12
    49c8:	79737562 	ldmdbvc	r3!, {r1, r5, r6, r8, sl, ip, sp, lr}^
    49cc:	61747320 	cmnvs	r4, r0, lsr #6
    49d0:	203a6574 	eorscs	r6, sl, r4, ror r5
    49d4:	2052434f 	subscs	r4, r2, pc, asr #6
    49d8:	000a7825 	andeq	r7, sl, r5, lsr #16
    49dc:	746f6f62 	strbtvc	r6, [pc], #-3938	; 49e4 <sd_card_type_names+0x54>
    49e0:	7325203a 			; <UNDEFINED> instruction: 0x7325203a
    49e4:	6143203a 	cmpvs	r3, sl, lsr r0
    49e8:	64206472 	strtvs	r6, [r0], #-1138	; 0xfffffb8e
    49ec:	276e6469 	strbcs	r6, [lr, -r9, ror #8]!
    49f0:	656c2074 	strbvs	r2, [ip, #-116]!	; 0xffffff8c
    49f4:	20657661 	rsbcs	r7, r5, r1, ror #12
    49f8:	79737562 	ldmdbvc	r3!, {r1, r5, r6, r8, sl, ip, sp, lr}^
    49fc:	61747320 	cmnvs	r4, r0, lsr #6
    4a00:	000a6574 	andeq	r6, sl, r4, ror r5
    4a04:	746f6f62 	strbtvc	r6, [pc], #-3938	; 4a0c <sd_card_type_names+0x7c>
    4a08:	7325203a 			; <UNDEFINED> instruction: 0x7325203a
    4a0c:	4943203a 	stmdbmi	r3, {r1, r3, r4, r5, sp}^
    4a10:	65722044 	ldrbvs	r2, [r2, #-68]!	; 0xffffffbc
    4a14:	73657571 	cmnvc	r5, #473956352	; 0x1c400000
    4a18:	61662074 	smcvs	25092	; 0x6204
    4a1c:	64656c69 	strbtvs	r6, [r5], #-3177	; 0xfffff397
    4a20:	6f62000a 	svcvs	0x0062000a
    4a24:	203a746f 	eorscs	r7, sl, pc, ror #8
    4a28:	203a7325 	eorscs	r7, sl, r5, lsr #6
    4a2c:	65746544 	ldrbvs	r6, [r4, #-1348]!	; 0xfffffabc
    4a30:	64657463 	strbtvs	r7, [r5], #-1123	; 0xfffffb9d
    4a34:	7325203a 			; <UNDEFINED> instruction: 0x7325203a
    4a38:	73255b20 			; <UNDEFINED> instruction: 0x73255b20
    4a3c:	62000a5d 	andvs	r0, r0, #380928	; 0x5d000
    4a40:	3a746f6f 	bcc	1d20804 <rumboot_platform_stack_area_end+0x1ca1804>
    4a44:	3a732520 	bcc	1ccdecc <rumboot_platform_stack_area_end+0x1c4eecc>
    4a48:	41435220 	cmpmi	r3, r0, lsr #4
    4a4c:	71657220 	cmnvc	r5, r0, lsr #4
    4a50:	74736575 	ldrbtvc	r6, [r3], #-1397	; 0xfffffa8b
    4a54:	69616620 	stmdbvs	r1!, {r5, r9, sl, sp, lr}^
    4a58:	0a64656c 	beq	191e010 <rumboot_platform_stack_area_end+0x189f010>
    4a5c:	6f6f6200 	svcvs	0x006f6200
    4a60:	25203a74 	strcs	r3, [r0, #-2676]!	; 0xfffff58c
    4a64:	46203a73 			; <UNDEFINED> instruction: 0x46203a73
    4a68:	656c6961 	strbvs	r6, [ip, #-2401]!	; 0xfffff69f
    4a6c:	6f742064 	svcvs	0x00742064
    4a70:	74757020 	ldrbtvc	r7, [r5], #-32	; 0xffffffe0
    4a74:	20445320 	subcs	r5, r4, r0, lsr #6
    4a78:	64726163 	ldrbtvs	r6, [r2], #-355	; 0xfffffe9d
    4a7c:	746e6920 	strbtvc	r6, [lr], #-2336	; 0xfffff6e0
    4a80:	7274206f 	rsbsvc	r2, r4, #111	; 0x6f
    4a84:	66736e61 	ldrbtvs	r6, [r3], -r1, ror #28
    4a88:	6d207265 	sfmvs	f7, 4, [r0, #-404]!	; 0xfffffe6c
    4a8c:	2c65646f 	cfstrdcs	mvd6, [r5], #-444	; 0xfffffe44
    4a90:	61637220 	cmnvs	r3, r0, lsr #4
    4a94:	0a782520 	beq	1e0df1c <rumboot_platform_stack_area_end+0x1d8ef1c>
    4a98:	6f6f6200 	svcvs	0x006f6200
    4a9c:	25203a74 	strcs	r3, [r0, #-2676]!	; 0xfffff58c
    4aa0:	43203a73 			; <UNDEFINED> instruction: 0x43203a73
    4aa4:	3631444d 	ldrtcc	r4, [r1], -sp, asr #8
    4aa8:	69614620 	stmdbvs	r1!, {r5, r9, sl, lr}^
    4aac:	2064656c 	rsbcs	r6, r4, ip, ror #10
    4ab0:	6f62000a 	svcvs	0x0062000a
    4ab4:	203a746f 	eorscs	r7, sl, pc, ror #8
    4ab8:	203a7325 	eorscs	r7, sl, r5, lsr #6
    4abc:	444d4341 	strbmi	r4, [sp], #-833	; 0xfffffcbf
    4ac0:	61462036 	cmpvs	r6, r6, lsr r0
    4ac4:	64656c69 	strbtvs	r6, [r5], #-3177	; 0xfffff397
    4ac8:	Address 0x0000000000004ac8 is out of bounds.


Disassembly of section .rodata.g_bootmodule_spiflash:

00004acc <g_bootmodule_spiflash>:
    4acc:	00000004 	andeq	r0, r0, r4
    4ad0:	00000000 	andeq	r0, r0, r0
    4ad4:	000023f8 	strdeq	r2, [r0], -r8
    4ad8:	00002398 	muleq	r0, r8, r3
    4adc:	000024a4 	andeq	r2, r0, r4, lsr #9

Disassembly of section .rodata.eeprom_init.str1.1:

00004ae0 <.rodata.eeprom_init.str1.1>:
    4ae0:	746f6f62 	strbtvc	r6, [pc], #-3938	; 4ae8 <g_bootmodule_spiflash+0x1c>
    4ae4:	7325203a 			; <UNDEFINED> instruction: 0x7325203a
    4ae8:	6e49203a 	mcrvs	0, 2, r2, cr9, cr10, {1}
    4aec:	696c6176 	stmdbvs	ip!, {r1, r2, r4, r5, r6, r8, sp, lr}^
    4af0:	65642064 	strbvs	r2, [r4, #-100]!	; 0xffffff9c
    4af4:	65636976 	strbvs	r6, [r3, #-2422]!	; 0xfffff68a
    4af8:	2c646920 			; <UNDEFINED> instruction: 0x2c646920
    4afc:	6f6f6220 	svcvs	0x006f6220
    4b00:	6d6f7274 	sfmvs	f7, 2, [pc, #-464]!	; 4938 <exception_names+0xc8>
    4b04:	67756220 	ldrbvs	r6, [r5, -r0, lsr #4]!
    4b08:	62000a3f 	andvs	r0, r0, #258048	; 0x3f000
    4b0c:	3a746f6f 	bcc	1d208d0 <rumboot_platform_stack_area_end+0x1ca18d0>
    4b10:	3a732520 	bcc	1ccdf98 <rumboot_platform_stack_area_end+0x1c4ef98>
    4b14:	766e4920 	strbtvc	r4, [lr], -r0, lsr #18
    4b18:	64696c61 	strbtvs	r6, [r9], #-3169	; 0xfffff39f
    4b1c:	43324920 	teqmi	r2, #32, 18	; 0x80000
    4b20:	6e696c20 	cdpvs	12, 6, cr6, cr9, cr0, {1}
    4b24:	74732065 	ldrbtvc	r2, [r3], #-101	; 0xffffff9b
    4b28:	3a657461 	bcc	1961cb4 <rumboot_platform_stack_area_end+0x18e2cb4>
    4b2c:	41445320 	cmpmi	r4, r0, lsr #6
    4b30:	6425203a 	strtvs	r2, [r5], #-58	; 0xffffffc6
    4b34:	4c435320 	mcrrmi	3, 2, r5, r3, cr0
    4b38:	6425203a 	strtvs	r2, [r5], #-58	; 0xffffffc6
    4b3c:	6f62000a 	svcvs	0x0062000a
    4b40:	203a746f 	eorscs	r7, sl, pc, ror #8
    4b44:	203a7325 	eorscs	r7, sl, r5, lsr #6
    4b48:	73657250 	cmnvc	r5, #80, 4
    4b4c:	656c6163 	strbvs	r6, [ip, #-355]!	; 0xfffffe9d
    4b50:	30203a72 	eorcc	r3, r0, r2, ror sl
    4b54:	20782578 	rsbscs	r2, r8, r8, ror r5
    4b58:	20642528 	rsbcs	r2, r4, r8, lsr #10
    4b5c:	0a297a48 	beq	a63484 <rumboot_platform_stack_area_end+0x9e4484>
	...

Disassembly of section .rodata.eeprom_read.str1.1:

00004b61 <.rodata.eeprom_read.str1.1>:
    4b61:	746f6f62 	strbtvc	r6, [pc], #-3938	; 4b69 <g_bootmodule_spiflash+0x9d>
    4b65:	7325203a 			; <UNDEFINED> instruction: 0x7325203a
    4b69:	7265203a 	rsbvc	r2, r5, #58	; 0x3a
    4b6d:	3a726f72 	bcc	1ca093d <rumboot_platform_stack_area_end+0x1c2193d>
    4b71:	63616e20 	cmnvs	r1, #32, 28	; 0x200
    4b75:	6877206b 	ldmdavs	r7!, {r0, r1, r3, r5, r6, sp}^
    4b79:	20656c69 	rsbcs	r6, r5, r9, ror #24
    4b7d:	74697277 	strbtvc	r7, [r9], #-631	; 0xfffffd89
    4b81:	20676e69 	rsbcs	r6, r7, r9, ror #28
    4b85:	72706565 	rsbsvc	r6, r0, #423624704	; 0x19400000
    4b89:	6f206d6f 	svcvs	0x00206d6f
    4b8d:	65736666 	ldrbvs	r6, [r3, #-1638]!	; 0xfffff99a
    4b91:	62000a74 	andvs	r0, r0, #116, 20	; 0x74000
    4b95:	3a746f6f 	bcc	1d20959 <rumboot_platform_stack_area_end+0x1ca1959>
    4b99:	3a732520 	bcc	1cce021 <rumboot_platform_stack_area_end+0x1c4f021>
    4b9d:	72726520 	rsbsvc	r6, r2, #32, 10	; 0x8000000
    4ba1:	203a726f 	eorscs	r7, sl, pc, ror #4
    4ba5:	69627261 	stmdbvs	r2!, {r0, r5, r6, r9, ip, sp, lr}^
    4ba9:	74617274 	strbtvc	r7, [r1], #-628	; 0xfffffd8c
    4bad:	206e6f69 	rsbcs	r6, lr, r9, ror #30
    4bb1:	74736f6c 	ldrbtvc	r6, [r3], #-3948	; 0xfffff094
    4bb5:	69687720 	stmdbvs	r8!, {r5, r8, r9, sl, ip, sp, lr}^
    4bb9:	7720656c 	strvc	r6, [r0, -ip, ror #10]!
    4bbd:	69746972 	ldmdbvs	r4!, {r1, r4, r5, r6, r8, fp, sp, lr}^
    4bc1:	6520676e 	strvs	r6, [r0, #-1902]!	; 0xfffff892
    4bc5:	6f727065 	svcvs	0x00727065
    4bc9:	666f206d 	strbtvs	r2, [pc], -sp, rrx
    4bcd:	74657366 	strbtvc	r7, [r5], #-870	; 0xfffffc9a
    4bd1:	6f62000a 	svcvs	0x0062000a
    4bd5:	203a746f 	eorscs	r7, sl, pc, ror #8
    4bd9:	203a7325 	eorscs	r7, sl, r5, lsr #6
    4bdd:	6f727265 	svcvs	0x00727265
    4be1:	75203a72 	strvc	r3, [r0, #-2674]!	; 0xfffff58e
    4be5:	7078656e 	rsbsvc	r6, r8, lr, ror #10
    4be9:	65746365 	ldrbvs	r6, [r4, #-869]!	; 0xfffffc9b
    4bed:	616e2064 	cmnvs	lr, r4, rrx
    4bf1:	61206b63 			; <UNDEFINED> instruction: 0x61206b63
    4bf5:	79622074 	stmdbvc	r2!, {r2, r4, r5, r6, sp}^
    4bf9:	25206574 	strcs	r6, [r0, #-1396]!	; 0xfffffa8c
    4bfd:	62000a64 	andvs	r0, r0, #100, 20	; 0x64000
    4c01:	3a746f6f 	bcc	1d209c5 <rumboot_platform_stack_area_end+0x1ca19c5>
    4c05:	3a732520 	bcc	1cce08d <rumboot_platform_stack_area_end+0x1c4f08d>
    4c09:	72726520 	rsbsvc	r6, r2, #32, 10	; 0x8000000
    4c0d:	203a726f 	eorscs	r7, sl, pc, ror #4
    4c11:	69627261 	stmdbvs	r2!, {r0, r5, r6, r9, ip, sp, lr}^
    4c15:	74617274 	strbtvc	r7, [r1], #-628	; 0xfffffd8c
    4c19:	206e6f69 	rsbcs	r6, lr, r9, ror #30
    4c1d:	74736f6c 	ldrbtvc	r6, [r3], #-3948	; 0xfffff094
    4c21:	20746120 	rsbscs	r6, r4, r0, lsr #2
    4c25:	65747962 	ldrbvs	r7, [r4, #-2402]!	; 0xfffff69e
    4c29:	0a642520 	beq	190e0b1 <rumboot_platform_stack_area_end+0x188f0b1>
    4c2d:	6f6f6200 	svcvs	0x006f6200
    4c31:	25203a74 	strcs	r3, [r0, #-2676]!	; 0xfffff58c
    4c35:	65203a73 	strvs	r3, [r0, #-2675]!	; 0xfffff58d
    4c39:	726f7272 	rsbvc	r7, pc, #536870919	; 0x20000007
    4c3d:	706f203a 	rsbvc	r2, pc, sl, lsr r0	; <UNPREDICTABLE>
    4c41:	74617265 	strbtvc	r7, [r1], #-613	; 0xfffffd9b
    4c45:	206e6f69 	rsbcs	r6, lr, r9, ror #30
    4c49:	656d6974 	strbvs	r6, [sp, #-2420]!	; 0xfffff68c
    4c4d:	756f2064 	strbvc	r2, [pc, #-100]!	; 4bf1 <g_bootmodule_spiflash+0x125>
    4c51:	74612074 	strbtvc	r2, [r1], #-116	; 0xffffff8c
    4c55:	74796220 	ldrbtvc	r6, [r9], #-544	; 0xfffffde0
    4c59:	64252065 	strtvs	r2, [r5], #-101	; 0xffffff9b
    4c5d:	6f62000a 	svcvs	0x0062000a
    4c61:	203a746f 	eorscs	r7, sl, pc, ror #8
    4c65:	203a7325 	eorscs	r7, sl, r5, lsr #6
    4c69:	4e524157 	mrcmi	1, 2, r4, cr2, cr7, {2}
    4c6d:	6954203a 	ldmdbvs	r4, {r1, r3, r4, r5, sp}^
    4c71:	756f656d 	strbvc	r6, [pc, #-1389]!	; 470c <rumboot_logo+0x4c>
    4c75:	61772074 	cmnvs	r7, r4, ror r0
    4c79:	6e697469 	cdpvs	4, 6, cr7, cr9, cr9, {3}
    4c7d:	6f662067 	svcvs	0x00662067
    4c81:	75622072 	strbvc	r2, [r2, #-114]!	; 0xffffff8e
    4c85:	65722073 	ldrbvs	r2, [r2, #-115]!	; 0xffffff8d
    4c89:	7361656c 	cmnvc	r1, #108, 10	; 0x1b000000
    4c8d:	62000a65 	andvs	r0, r0, #413696	; 0x65000
    4c91:	3a746f6f 	bcc	1d20a55 <rumboot_platform_stack_area_end+0x1ca1a55>
    4c95:	3a732520 	bcc	1cce11d <rumboot_platform_stack_area_end+0x1c4f11d>
    4c99:	72726520 	rsbsvc	r6, r2, #32, 10	; 0x8000000
    4c9d:	203a726f 	eorscs	r7, sl, pc, ror #4
    4ca1:	656d6974 	strbvs	r6, [sp, #-2420]!	; 0xfffff68c
    4ca5:	2074756f 	rsbscs	r7, r4, pc, ror #10
    4ca9:	6c696877 	stclvs	8, cr6, [r9], #-476	; 0xfffffe24
    4cad:	72772065 	rsbsvc	r2, r7, #101	; 0x65
    4cb1:	6e697469 	cdpvs	4, 6, cr7, cr9, cr9, {3}
    4cb5:	65652067 	strbvs	r2, [r5, #-103]!	; 0xffffff99
    4cb9:	6d6f7270 	sfmvs	f7, 2, [pc, #-448]!	; 4b00 <g_bootmodule_spiflash+0x34>
    4cbd:	66666f20 	strbtvs	r6, [r6], -r0, lsr #30
    4cc1:	20746573 	rsbscs	r6, r4, r3, ror r5
    4cc5:	29642528 	stmdbcs	r4!, {r3, r5, r8, sl, sp}^
    4cc9:	Address 0x0000000000004cc9 is out of bounds.


Disassembly of section .rodata.g_bootmodule_eeprom:

00004ccc <g_bootmodule_eeprom>:
    4ccc:	00000004 	andeq	r0, r0, r4
    4cd0:	00000000 	andeq	r0, r0, r0
    4cd4:	00002504 	andeq	r2, r0, r4, lsl #10
    4cd8:	000025f4 	strdeq	r2, [r0], -r4
    4cdc:	0000260c 	andeq	r2, r0, ip, lsl #12

Disassembly of section .rodata.bootsource_init.str1.1:

00004ce0 <.rodata.bootsource_init.str1.1>:
    4ce0:	746f6f62 	strbtvc	r6, [pc], #-3938	; 4ce8 <g_bootmodule_eeprom+0x1c>
    4ce4:	7325203a 			; <UNDEFINED> instruction: 0x7325203a
    4ce8:	6146203a 	cmpvs	r6, sl, lsr r0
    4cec:	64656c69 	strbtvs	r6, [r5], #-3177	; 0xfffff397
    4cf0:	206f7420 	rsbcs	r7, pc, r0, lsr #8
    4cf4:	62616e65 	rsbvs	r6, r1, #1616	; 0x650
    4cf8:	6f20656c 	svcvs	0x0020656c
    4cfc:	656d2072 	strbvs	r2, [sp, #-114]!	; 0xffffff8e
    4d00:	20616964 	rsbcs	r6, r1, r4, ror #18
    4d04:	20746f6e 	rsbscs	r6, r4, lr, ror #30
    4d08:	73657270 	cmnvc	r5, #112, 4
    4d0c:	0a746e65 	beq	1d206a8 <rumboot_platform_stack_area_end+0x1ca16a8>
    4d10:	6f6f6200 	svcvs	0x006f6200
    4d14:	25203a74 	strcs	r3, [r0, #-2676]!	; 0xfffff58c
    4d18:	49203a73 	stmdbmi	r0!, {r0, r1, r4, r5, r6, r9, fp, ip, sp}
    4d1c:	6974696e 	ldmdbvs	r4!, {r1, r2, r3, r5, r6, r8, fp, sp, lr}^
    4d20:	7a696c61 	bvc	1a5feac <rumboot_platform_stack_area_end+0x19e0eac>
    4d24:	6f697461 	svcvs	0x00697461
    4d28:	6166206e 	cmnvs	r6, lr, rrx
    4d2c:	64656c69 	strbtvs	r6, [r5], #-3177	; 0xfffff397
    4d30:	Address 0x0000000000004d30 is out of bounds.


Disassembly of section .rodata.bootsource_read.str1.1:

00004d32 <.rodata.bootsource_read.str1.1>:
    4d32:	746f6f62 	strbtvc	r6, [pc], #-3938	; 4d3a <g_bootmodule_eeprom+0x6e>
    4d36:	7325203a 			; <UNDEFINED> instruction: 0x7325203a
    4d3a:	4157203a 	cmpmi	r7, sl, lsr r0
    4d3e:	203a4e52 	eorscs	r4, sl, r2, asr lr
    4d42:	75666552 	strbvc	r6, [r6, #-1362]!	; 0xfffffaae
    4d46:	676e6973 			; <UNDEFINED> instruction: 0x676e6973
    4d4a:	206f7420 	rsbcs	r7, pc, r0, lsr #8
    4d4e:	6d206f64 	stcvs	15, cr6, [r0, #-400]!	; 0xfffffe70
    4d52:	6c617369 	stclvs	3, cr7, [r1], #-420	; 0xfffffe5c
    4d56:	656e6769 	strbvs	r6, [lr, #-1897]!	; 0xfffff897
    4d5a:	65722064 	ldrbvs	r2, [r2, #-100]!	; 0xffffff9c
    4d5e:	000a6461 	andeq	r6, sl, r1, ror #8
    4d62:	746f6f62 	strbtvc	r6, [pc], #-3938	; 4d6a <g_bootmodule_eeprom+0x9e>
    4d66:	7325203a 			; <UNDEFINED> instruction: 0x7325203a
    4d6a:	4157203a 	cmpmi	r7, sl, lsr r0
    4d6e:	203a4e52 	eorscs	r4, sl, r2, asr lr
    4d72:	75646552 	strbvc	r6, [r4, #-1362]!	; 0xfffffaae
    4d76:	676e6963 	strbvs	r6, [lr, -r3, ror #18]!
    4d7a:	61657220 	cmnvs	r5, r0, lsr #4
    4d7e:	69732064 	ldmdbvs	r3!, {r2, r5, r6, sp}^
    4d82:	7420657a 	strtvc	r6, [r0], #-1402	; 0xfffffa86
    4d86:	616d206f 	cmnvs	sp, pc, rrx
    4d8a:	20686374 	rsbcs	r6, r8, r4, ror r3
    4d8e:	67696c61 	strbvs	r6, [r9, -r1, ror #24]!
    4d92:	6e656d6e 	cdpvs	13, 6, cr6, cr5, cr14, {3}
    4d96:	65722074 	ldrbvs	r2, [r2, #-116]!	; 0xffffff8c
    4d9a:	72697571 	rsbvc	r7, r9, #473956352	; 0x1c400000
    4d9e:	6e656d65 	cdpvs	13, 6, cr6, cr5, cr5, {3}
    4da2:	000a7374 	andeq	r7, sl, r4, ror r3

Disassembly of section .rodata.bootsource_try_source_once.str1.1:

00004da6 <.rodata.bootsource_try_source_once.str1.1>:
    4da6:	746f6f62 	strbtvc	r6, [pc], #-3938	; 4dae <g_bootmodule_eeprom+0xe2>
    4daa:	6f726620 	svcvs	0x00726620
    4dae:	6e61206d 	cdpvs	0, 6, cr2, cr1, cr13, {3}
    4db2:	6568746f 	strbvs	r7, [r8, #-1135]!	; 0xfffffb91
    4db6:	65642072 	strbvs	r2, [r4, #-114]!	; 0xffffff8e
    4dba:	65636976 	strbvs	r6, [r3, #-2422]!	; 0xfffff68a
    4dbe:	6f6f6200 	svcvs	0x006f6200
    4dc2:	72662074 	rsbvc	r2, r6, #116	; 0x74
    4dc6:	6e206d6f 	cdpvs	13, 2, cr6, cr0, cr15, {3}
    4dca:	20747865 	rsbscs	r7, r4, r5, ror #16
    4dce:	69766564 	ldmdbvs	r6!, {r2, r5, r6, r8, sl, sp, lr}^
    4dd2:	73006563 	movwvc	r6, #1379	; 0x563
    4dd6:	63746977 	cmnvs	r4, #1949696	; 0x1dc000
    4dda:	6f742068 	svcvs	0x00742068
    4dde:	736f6820 	cmnvc	pc, #32, 16	; 0x200000
    4de2:	6f6d2074 	svcvs	0x006d2074
    4de6:	62006564 	andvs	r6, r0, #100, 10	; 0x19000000
    4dea:	3a746f6f 	bcc	1d20bae <rumboot_platform_stack_area_end+0x1ca1bae>
    4dee:	3a732520 	bcc	1cce276 <rumboot_platform_stack_area_end+0x1c4f276>
    4df2:	61655220 	cmnvs	r5, r0, lsr #4
    4df6:	676e6964 	strbvs	r6, [lr, -r4, ror #18]!
    4dfa:	616d6920 	cmnvs	sp, r0, lsr #18
    4dfe:	66206567 	strtvs	r6, [r0], -r7, ror #10
    4e02:	206d6f72 	rsbcs	r6, sp, r2, ror pc
    4e06:	7366666f 	cmnvc	r6, #116391936	; 0x6f00000
    4e0a:	25207465 	strcs	r7, [r0, #-1125]!	; 0xfffffb9b
    4e0e:	62000a64 	andvs	r0, r0, #100, 20	; 0x64000
    4e12:	3a746f6f 	bcc	1d20bd6 <rumboot_platform_stack_area_end+0x1ca1bd6>
    4e16:	3a732520 	bcc	1cce29e <rumboot_platform_stack_area_end+0x1c4f29e>
    4e1a:	72724520 	rsbsvc	r4, r2, #32, 10	; 0x8000000
    4e1e:	203a726f 	eorscs	r7, sl, pc, ror #4
    4e22:	28207325 	stmdacs	r0!, {r0, r2, r5, r8, r9, ip, sp, lr}
    4e26:	0a296425 	beq	a5dec2 <rumboot_platform_stack_area_end+0x9deec2>
    4e2a:	6f6f6200 	svcvs	0x006f6200
    4e2e:	25203a74 	strcs	r3, [r0, #-2676]!	; 0xfffff58c
    4e32:	49203a73 	stmdbmi	r0!, {r0, r1, r4, r5, r6, r9, fp, ip, sp}
    4e36:	6567616d 	strbvs	r6, [r7, #-365]!	; 0xfffffe93
    4e3a:	6c617620 	stclvs	6, cr7, [r1], #-128	; 0xffffff80
    4e3e:	74616469 	strbtvc	r6, [r1], #-1129	; 0xfffffb97
    4e42:	202c6465 	eorcs	r6, ip, r5, ror #8
    4e46:	63657865 	cmnvs	r5, #6619136	; 0x650000
    4e4a:	6e697475 	mcrvs	4, 3, r7, cr9, cr5, {3}
    4e4e:	2e2e2e67 	cdpcs	14, 2, cr2, cr14, cr7, {3}
    4e52:	6f62000a 	svcvs	0x0062000a
    4e56:	203a746f 	eorscs	r7, sl, pc, ror #8
    4e5a:	203a7325 	eorscs	r7, sl, r5, lsr #6
    4e5e:	6b636142 	blvs	18dd36e <rumboot_platform_stack_area_end+0x185e36e>
    4e62:	206e6920 	rsbcs	r6, lr, r0, lsr #18
    4e66:	2c6d6f72 	stclcs	15, cr6, [sp], #-456	; 0xfffffe38
    4e6a:	646f6320 	strbtvs	r6, [pc], #-800	; 4e72 <g_bootmodule_eeprom+0x1a6>
    4e6e:	64252065 	strtvs	r2, [r5], #-101	; 0xffffff9b
    4e72:	6977202c 	ldmdbvs	r7!, {r2, r3, r5, sp}^
    4e76:	6e206c6c 	cdpvs	12, 2, cr6, cr0, cr12, {3}
    4e7a:	2520776f 	strcs	r7, [r0, #-1903]!	; 0xfffff891
    4e7e:	Address 0x0000000000004e7e is out of bounds.


Disassembly of section .rodata.errors:

00004e84 <errors>:
    4e84:	0000402d 	andeq	r4, r0, sp, lsr #32
    4e88:	00004035 	andeq	r4, r0, r5, lsr r0
    4e8c:	0000403f 	andeq	r4, r0, pc, lsr r0
    4e90:	0000405b 	andeq	r4, r0, fp, asr r0
    4e94:	00004071 	andeq	r4, r0, r1, ror r0
    4e98:	00004082 	andeq	r4, r0, r2, lsl #1
    4e9c:	00004095 	muleq	r0, r5, r0
    4ea0:	000040a0 	andeq	r4, r0, r0, lsr #1
    4ea4:	000040af 	andeq	r4, r0, pc, lsr #1
    4ea8:	000040bd 	strheq	r4, [r0], -sp
    4eac:	000040d8 	ldrdeq	r4, [r0], -r8
    4eb0:	00000000 	andeq	r0, r0, r0
    4eb4:	000040f0 	strdeq	r4, [r0], -r0

Disassembly of section .rodata.rumboot_bootimage_check_data.str1.1:

00004eb8 <.rodata.rumboot_bootimage_check_data.str1.1>:
    4eb8:	746f6f62 	strbtvc	r6, [pc], #-3938	; 4ec0 <errors+0x3c>
    4ebc:	7325203a 			; <UNDEFINED> instruction: 0x7325203a
    4ec0:	6144203a 	cmpvs	r4, sl, lsr r0
    4ec4:	43206174 			; <UNDEFINED> instruction: 0x43206174
    4ec8:	32334352 	eorscc	r4, r3, #1207959553	; 0x48000001
    4ecc:	73696d20 	cmnvc	r9, #32, 26	; 0x800
    4ed0:	6374616d 	cmnvs	r4, #1073741851	; 0x4000001b
    4ed4:	65203a68 	strvs	r3, [r0, #-2664]!	; 0xfffff598
    4ed8:	63657078 	cmnvs	r5, #120	; 0x78
    4edc:	3a646574 	bcc	191e4b4 <rumboot_platform_stack_area_end+0x189f4b4>
    4ee0:	25783020 	ldrbcs	r3, [r8, #-32]!	; 0xffffffe0
    4ee4:	61632078 	smcvs	12808	; 0x3208
    4ee8:	6c75636c 	ldclvs	3, cr6, [r5], #-432	; 0xfffffe50
    4eec:	64657461 	strbtvs	r7, [r5], #-1121	; 0xfffffb9f
    4ef0:	7825203a 	stmdavc	r5!, {r1, r3, r4, r5, sp}
    4ef4:	Address 0x0000000000004ef4 is out of bounds.


Disassembly of section .rodata.rumboot_bootimage_check_header.str1.1:

00004ef6 <.rodata.rumboot_bootimage_check_header.str1.1>:
    4ef6:	74736f68 	ldrbtvc	r6, [r3], #-3944	; 0xfffff098
    4efa:	6f6f6200 	svcvs	0x006f6200
    4efe:	25203a74 	strcs	r3, [r0, #-2676]!	; 0xfffff58c
    4f02:	2d203a73 	vstmdbcs	r0!, {s6-s120}
    4f06:	42202d2d 	eormi	r2, r0, #2880	; 0xb40
    4f0a:	20746f6f 	rsbscs	r6, r4, pc, ror #30
    4f0e:	67616d49 	strbvs	r6, [r1, -r9, asr #26]!
    4f12:	65482065 	strbvs	r2, [r8, #-101]	; 0xffffff9b
    4f16:	72656461 	rsbvc	r6, r5, #1627389952	; 0x61000000
    4f1a:	2d2d2d20 	stccs	13, cr2, [sp, #-128]!	; 0xffffff80
    4f1e:	6f62000a 	svcvs	0x0062000a
    4f22:	203a746f 	eorscs	r7, sl, pc, ror #8
    4f26:	203a7325 	eorscs	r7, sl, r5, lsr #6
    4f2a:	6967614d 	stmdbvs	r7!, {r0, r2, r3, r6, r8, sp, lr}^
    4f2e:	20203a63 	eorcs	r3, r0, r3, ror #20
    4f32:	20202020 	eorcs	r2, r0, r0, lsr #32
    4f36:	20202020 	eorcs	r2, r0, r0, lsr #32
    4f3a:	78302020 	ldmdavc	r0!, {r5, sp}
    4f3e:	000a7825 	andeq	r7, sl, r5, lsr #16
    4f42:	746f6f62 	strbtvc	r6, [pc], #-3938	; 4f4a <errors+0xc6>
    4f46:	7325203a 			; <UNDEFINED> instruction: 0x7325203a
    4f4a:	6548203a 	strbvs	r2, [r8, #-58]	; 0xffffffc6
    4f4e:	72656461 	rsbvc	r6, r5, #1627389952	; 0x61000000
    4f52:	72657620 	rsbvc	r7, r5, #32, 12	; 0x2000000
    4f56:	6e6f6973 			; <UNDEFINED> instruction: 0x6e6f6973
    4f5a:	2020203a 	eorcs	r2, r0, sl, lsr r0
    4f5e:	000a6425 	andeq	r6, sl, r5, lsr #8
    4f62:	746f6f62 	strbtvc	r6, [pc], #-3938	; 4f6a <errors+0xe6>
    4f66:	7325203a 			; <UNDEFINED> instruction: 0x7325203a
    4f6a:	6843203a 	stmdavs	r3, {r1, r3, r4, r5, sp}^
    4f6e:	49207069 	stmdbmi	r0!, {r0, r3, r5, r6, ip, sp, lr}
    4f72:	20203a64 	eorcs	r3, r0, r4, ror #20
    4f76:	20202020 	eorcs	r2, r0, r0, lsr #32
    4f7a:	20202020 	eorcs	r2, r0, r0, lsr #32
    4f7e:	000a6425 	andeq	r6, sl, r5, lsr #8
    4f82:	746f6f62 	strbtvc	r6, [pc], #-3938	; 4f8a <errors+0x106>
    4f86:	7325203a 			; <UNDEFINED> instruction: 0x7325203a
    4f8a:	6843203a 	stmdavs	r3, {r1, r3, r4, r5, sp}^
    4f8e:	52207069 	eorpl	r7, r0, #105	; 0x69
    4f92:	73697665 	cmnvc	r9, #105906176	; 0x6500000
    4f96:	3a6e6f69 	bcc	1ba0d42 <rumboot_platform_stack_area_end+0x1b21d42>
    4f9a:	20202020 	eorcs	r2, r0, r0, lsr #32
    4f9e:	000a6425 	andeq	r6, sl, r5, lsr #8
    4fa2:	746f6f62 	strbtvc	r6, [pc], #-3938	; 4faa <errors+0x126>
    4fa6:	7325203a 			; <UNDEFINED> instruction: 0x7325203a
    4faa:	6144203a 	cmpvs	r4, sl, lsr r0
    4fae:	6c206174 	stfvss	f6, [r0], #-464	; 0xfffffe30
    4fb2:	74676e65 	strbtvc	r6, [r7], #-3685	; 0xfffff19b
    4fb6:	20203a68 	eorcs	r3, r0, r8, ror #20
    4fba:	20202020 	eorcs	r2, r0, r0, lsr #32
    4fbe:	000a6425 	andeq	r6, sl, r5, lsr #8
    4fc2:	746f6f62 	strbtvc	r6, [pc], #-3938	; 4fca <errors+0x146>
    4fc6:	7325203a 			; <UNDEFINED> instruction: 0x7325203a
    4fca:	6548203a 	strbvs	r2, [r8, #-58]	; 0xffffffc6
    4fce:	72656461 	rsbvc	r6, r5, #1627389952	; 0x61000000
    4fd2:	43524320 	cmpmi	r2, #32, 6	; 0x80000000
    4fd6:	203a3233 	eorscs	r3, sl, r3, lsr r2
    4fda:	20202020 	eorcs	r2, r0, r0, lsr #32
    4fde:	78257830 	stmdavc	r5!, {r4, r5, fp, ip, sp, lr}
    4fe2:	6f62000a 	svcvs	0x0062000a
    4fe6:	203a746f 	eorscs	r7, sl, pc, ror #8
    4fea:	203a7325 	eorscs	r7, sl, r5, lsr #6
    4fee:	61746144 	cmnvs	r4, r4, asr #2
    4ff2:	43524320 	cmpmi	r2, #32, 6	; 0x80000000
    4ff6:	203a3233 	eorscs	r3, sl, r3, lsr r2
    4ffa:	20202020 	eorcs	r2, r0, r0, lsr #32
    4ffe:	78302020 	ldmdavc	r0!, {r5, sp}
    5002:	000a7825 	andeq	r7, sl, r5, lsr #16
    5006:	746f6f62 	strbtvc	r6, [pc], #-3938	; 500e <errors+0x18a>
    500a:	7325203a 			; <UNDEFINED> instruction: 0x7325203a
    500e:	2d2d203a 	stccs	0, cr2, [sp, #-232]!	; 0xffffff18
    5012:	2020202d 	eorcs	r2, r0, sp, lsr #32
    5016:	20202020 	eorcs	r2, r0, r0, lsr #32
    501a:	2d2d2d20 	stccs	13, cr2, [sp, #-128]!	; 0xffffff80
    501e:	20202020 	eorcs	r2, r0, r0, lsr #32
    5022:	20202020 	eorcs	r2, r0, r0, lsr #32
    5026:	0a2d2d2d 	beq	b504e2 <rumboot_platform_stack_area_end+0xad14e2>
    502a:	6f6f6200 	svcvs	0x006f6200
    502e:	25203a74 	strcs	r3, [r0, #-2676]!	; 0xfffff58c
    5032:	57203a73 			; <UNDEFINED> instruction: 0x57203a73
    5036:	494e5241 	stmdbmi	lr, {r0, r6, r9, ip, lr}^
    503a:	203a474e 	eorscs	r4, sl, lr, asr #14
    503e:	70696843 	rsbvc	r6, r9, r3, asr #16
    5042:	76655220 	strbtvc	r5, [r5], -r0, lsr #4
    5046:	6f697369 	svcvs	0x00697369
    504a:	696d206e 	stmdbvs	sp!, {r1, r2, r3, r5, r6, sp}^
    504e:	74616d73 	strbtvc	r6, [r1], #-3443	; 0xfffff28d
    5052:	203a6863 	eorscs	r6, sl, r3, ror #16
    5056:	65707845 	ldrbvs	r7, [r0, #-2117]!	; 0xfffff7bb
    505a:	6e697463 	cdpvs	4, 6, cr7, cr9, cr3, {3}
    505e:	64252067 	strtvs	r2, [r5], #-103	; 0xffffff99
    5062:	6168202c 	cmnvs	r8, ip, lsr #32
    5066:	25206576 	strcs	r6, [r0, #-1398]!	; 0xfffffa8a
    506a:	62000a64 	andvs	r0, r0, #100, 20	; 0x64000
    506e:	3a746f6f 	bcc	1d20e32 <rumboot_platform_stack_area_end+0x1ca1e32>
    5072:	3a732520 	bcc	1cce4fa <rumboot_platform_stack_area_end+0x1c4f4fa>
    5076:	61654820 	cmnvs	r5, r0, lsr #16
    507a:	20726564 	rsbscs	r6, r2, r4, ror #10
    507e:	33435243 	movtcc	r5, #12867	; 0x3243
    5082:	696d2032 	stmdbvs	sp!, {r1, r4, r5, sp}^
    5086:	74616d73 	strbtvc	r6, [r1], #-3443	; 0xfffff28d
    508a:	203a6863 	eorscs	r6, sl, r3, ror #16
    508e:	65707865 	ldrbvs	r7, [r0, #-2149]!	; 0xfffff79b
    5092:	64657463 	strbtvs	r7, [r5], #-1123	; 0xfffffb9d
    5096:	7830203a 	ldmdavc	r0!, {r1, r3, r4, r5, sp}
    509a:	63207825 			; <UNDEFINED> instruction: 0x63207825
    509e:	75636c61 	strbvc	r6, [r3, #-3169]!	; 0xfffff39f
    50a2:	6574616c 	ldrbvs	r6, [r4, #-364]!	; 0xfffffe94
    50a6:	25203a64 	strcs	r3, [r0, #-2660]!	; 0xfffff59c
    50aa:	Address 0x00000000000050aa is out of bounds.


Disassembly of section .rodata.pl022_set_speed.str1.1:

000050ad <.rodata.pl022_set_speed.str1.1>:
    50ad:	32306c70 	eorscc	r6, r0, #112, 24	; 0x7000
    50b1:	4d203a32 	vstmdbmi	r0!, {s6-s55}
    50b5:	73207861 			; <UNDEFINED> instruction: 0x73207861
    50b9:	64656570 	strbtvs	r6, [r5], #-1392	; 0xfffffa90
    50bd:	61687420 	cmnvs	r8, r0, lsr #8
    50c1:	61632074 	smcvs	12804	; 0x3204
    50c5:	6562206e 	strbvs	r2, [r2, #-110]!	; 0xffffff92
    50c9:	6f727020 	svcvs	0x00727020
    50cd:	6d617267 	sfmvs	f7, 2, [r1, #-412]!	; 0xfffffe64
    50d1:	2064656d 	rsbcs	r6, r4, sp, ror #10
    50d5:	25207369 	strcs	r7, [r0, #-873]!	; 0xfffffc97
    50d9:	7a482064 	bvc	120d271 <rumboot_platform_stack_area_end+0x118e271>
    50dd:	6f79202c 	svcvs	0x0079202c
    50e1:	65722075 	ldrbvs	r2, [r2, #-117]!	; 0xffffff8b
    50e5:	73657571 	cmnvc	r5, #473956352	; 0x1c400000
    50e9:	20646574 	rsbcs	r6, r4, r4, ror r5
    50ed:	000a6425 	andeq	r6, sl, r5, lsr #8
    50f1:	32306c70 	eorscc	r6, r0, #112, 24	; 0x7000
    50f5:	52203a32 	eorpl	r3, r0, #204800	; 0x32000
    50f9:	65757165 	ldrbvs	r7, [r5, #-357]!	; 0xfffffe9b
    50fd:	64657473 	strbtvs	r7, [r5], #-1139	; 0xfffffb8d
    5101:	65726620 	ldrbvs	r6, [r2, #-1568]!	; 0xfffff9e0
    5105:	6e657571 	mcrvs	5, 3, r7, cr5, cr1, {3}
    5109:	203a7963 	eorscs	r7, sl, r3, ror #18
    510d:	48206425 	stmdami	r0!, {r0, r2, r5, sl, sp, lr}
    5111:	7369207a 	cmnvc	r9, #122	; 0x7a
    5115:	73656c20 	cmnvc	r5, #32, 24	; 0x2000
    5119:	68742073 	ldmdavs	r4!, {r0, r1, r4, r5, r6, sp}^
    511d:	6d206e61 	stcvs	14, cr6, [r0, #-388]!	; 0xfffffe7c
    5121:	6d696e69 	stclvs	14, cr6, [r9, #-420]!	; 0xfffffe5c
    5125:	70206d75 	eorvc	r6, r0, r5, ror sp
    5129:	6973736f 	ldmdbvs	r3!, {r0, r1, r2, r3, r5, r6, r8, r9, ip, sp, lr}^
    512d:	20656c62 	rsbcs	r6, r5, r2, ror #24
    5131:	48206425 	stmdami	r0!, {r0, r2, r5, sl, sp, lr}
    5135:	70000a7a 	andvc	r0, r0, sl, ror sl
    5139:	3232306c 	eorscc	r3, r2, #108	; 0x6c
    513d:	614d203a 	cmpvs	sp, sl, lsr r0
    5141:	69686374 	stmdbvs	r8!, {r2, r4, r5, r6, r8, r9, sp, lr}^
    5145:	6320676e 			; <UNDEFINED> instruction: 0x6320676e
    5149:	76647370 			; <UNDEFINED> instruction: 0x76647370
    514d:	61207273 			; <UNDEFINED> instruction: 0x61207273
    5151:	7320646e 			; <UNDEFINED> instruction: 0x7320646e
    5155:	6e207263 	cdpvs	2, 2, cr7, cr0, cr3, {3}
    5159:	6620746f 	strtvs	r7, [r0], -pc, ror #8
    515d:	646e756f 	strbtvs	r7, [lr], #-1391	; 0xfffffa91
    5161:	726f6620 	rsbvc	r6, pc, #32, 12	; 0x2000000
    5165:	20642520 	rsbcs	r2, r4, r0, lsr #10
    5169:	72207a48 	eorvc	r7, r0, #72, 20	; 0x48000
    516d:	20657461 	rsbcs	r7, r5, r1, ror #8
    5171:	Address 0x0000000000005171 is out of bounds.


Disassembly of section .rodata.rumboot_malloc_register_heap.str1.1:

00005173 <.rodata.rumboot_malloc_register_heap.str1.1>:
    5173:	6c696146 	stfvse	f6, [r9], #-280	; 0xfffffee8
    5177:	74206465 	strtvc	r6, [r0], #-1125	; 0xfffffb9b
    517b:	6572206f 	ldrbvs	r2, [r2, #-111]!	; 0xffffff91
    517f:	74736967 	ldrbtvc	r6, [r3], #-2407	; 0xfffff699
    5183:	68207265 	stmdavs	r0!, {r0, r2, r5, r6, r9, ip, sp, lr}
    5187:	20706165 	rsbscs	r6, r0, r5, ror #2
    518b:	202c7325 	eorcs	r7, ip, r5, lsr #6
    518f:	61656c70 	smcvs	22208	; 0x56c0
    5193:	69206573 	stmdbvs	r0!, {r0, r1, r4, r5, r6, r8, sl, sp, lr}
    5197:	6572636e 	ldrbvs	r6, [r2, #-878]!	; 0xfffffc92
    519b:	20657361 	rsbcs	r7, r5, r1, ror #6
    519f:	424d5552 	submi	r5, sp, #343932928	; 0x14800000
    51a3:	5f544f4f 	svcpl	0x00544f4f
    51a7:	54414c50 	strbpl	r4, [r1], #-3152	; 0xfffff3b0
    51ab:	4d524f46 	ldclmi	15, cr4, [r2, #-280]	; 0xfffffee8
    51af:	4d554e5f 	ldclmi	14, cr4, [r5, #-380]	; 0xfffffe84
    51b3:	4145485f 	cmpmi	r5, pc, asr r8
    51b7:	28205350 	stmdacs	r0!, {r4, r6, r8, r9, ip, lr}
    51bb:	72727563 	rsbsvc	r7, r2, #415236096	; 0x18c00000
    51bf:	20746e65 	rsbscs	r6, r4, r5, ror #28
    51c3:	6425202d 	strtvs	r2, [r5], #-45	; 0xffffffd3
    51c7:	Address 0x00000000000051c7 is out of bounds.


Disassembly of section .rodata.rumboot_platform_panic.str1.1:

000051ca <__init_array_end-0x8>:
    51ca:	494e4150 	stmdbmi	lr, {r4, r6, r8, lr}^
    51ce:	00203a43 	eoreq	r3, r0, r3, asr #20

Disassembly of section .rw:

00040000 <rumboot_platform_spl_start>:
	...

00060000 <rumboot_im0_heap_end>:
	...

0006f000 <rumboot_im1_heap_end>:
	...

0006f400 <rumboot_platform_fiq_stack_top>:
	...

0006f800 <rumboot_platform_abt_stack_top>:
	...

0006fc00 <rumboot_platform_und_stack_top>:
	...

00070000 <rumboot_platform_usr_stack_top>:
	...

00071000 <rumboot_platform_irq_stack_top>:
	...

Disassembly of section .runtime:

0007f000 <rumboot_platform_runtime>:
	...

Disassembly of section .comment:

00000000 <.comment>:
   0:	3a434347 	bcc	10d0d24 <rumboot_platform_stack_area_end+0x1051d24>
   4:	72632820 	rsbvc	r2, r3, #32, 16	; 0x200000
   8:	7473736f 	ldrbtvc	r7, [r3], #-879	; 0xfffffc91
   c:	2d6c6f6f 	stclcs	15, cr6, [ip, #-444]!	; 0xfffffe44
  10:	6320474e 			; <UNDEFINED> instruction: 0x6320474e
  14:	73736f72 	cmnvc	r3, #456	; 0x1c8
  18:	6c6f6f74 	stclvs	15, cr6, [pc], #-464	; fffffe50 <rumboot_platform_stack_area_end+0xfff80e50>
  1c:	2d676e2d 	stclcs	14, cr6, [r7, #-180]!	; 0xffffff4c
  20:	33322e31 	teqcc	r2, #784	; 0x310
  24:	362d302e 	strtcc	r3, [sp], -lr, lsr #32
  28:	31672d35 	cmncc	r7, r5, lsr sp
  2c:	39383030 	ldmdbcc	r8!, {r4, r5, ip, sp}
  30:	642d3366 	strtvs	r3, [sp], #-870	; 0xfffffc9a
  34:	79747269 	ldmdbvc	r4!, {r0, r3, r5, r6, r9, ip, sp, lr}^
  38:	2e362029 	cdpcs	0, 3, cr2, cr6, cr9, {1}
  3c:	00302e33 	eorseq	r2, r0, r3, lsr lr

Disassembly of section .ARM.attributes:

00000000 <.ARM.attributes>:
   0:	00003c41 	andeq	r3, r0, r1, asr #24
   4:	61656100 	cmnvs	r5, r0, lsl #2
   8:	01006962 	tsteq	r0, r2, ror #18
   c:	00000032 	andeq	r0, r0, r2, lsr r0
  10:	726f4305 	rsbvc	r4, pc, #335544320	; 0x14000000
  14:	2d786574 	cfldr64cs	mvdx6, [r8, #-464]!	; 0xfffffe30
  18:	06003541 	streq	r3, [r0], -r1, asr #10
  1c:	0841070a 	stmdaeq	r1, {r1, r3, r8, r9, sl}^
  20:	0a020901 	beq	8242c <rumboot_platform_stack_area_end+0x342c>
  24:	12010c03 	andne	r0, r1, #768	; 0x300
  28:	15011404 	strne	r1, [r1, #-1028]	; 0xfffffbfc
  2c:	18031701 	stmdane	r3, {r0, r8, r9, sl, ip}
  30:	1c011a01 			; <UNDEFINED> instruction: 0x1c011a01
  34:	22041e01 	andcs	r1, r4, #1, 28
  38:	44012a01 	strmi	r2, [r1], #-2561	; 0xfffff5ff
  3c:	Address 0x000000000000003c is out of bounds.


Disassembly of section .debug_frame:

00000000 <.debug_frame>:
   0:	0000000c 	andeq	r0, r0, ip
   4:	ffffffff 			; <UNDEFINED> instruction: 0xffffffff
   8:	7c010001 	stcvc	0, cr0, [r1], {1}
   c:	000d0c0e 	andeq	r0, sp, lr, lsl #24
  10:	0000000c 	andeq	r0, r0, ip
  14:	00000000 	andeq	r0, r0, r0
  18:	000001fc 	strdeq	r0, [r0], -ip
  1c:	000000a8 	andeq	r0, r0, r8, lsr #1
  20:	0000000c 	andeq	r0, r0, ip
  24:	ffffffff 			; <UNDEFINED> instruction: 0xffffffff
  28:	7c010001 	stcvc	0, cr0, [r1], {1}
  2c:	000d0c0e 	andeq	r0, sp, lr, lsl #24
  30:	0000000c 	andeq	r0, r0, ip
  34:	00000020 	andeq	r0, r0, r0, lsr #32
  38:	000002c4 	andeq	r0, r0, r4, asr #5
  3c:	000000dc 	ldrdeq	r0, [r0], -ip
  40:	0000000c 	andeq	r0, r0, ip
  44:	ffffffff 			; <UNDEFINED> instruction: 0xffffffff
  48:	7c020001 	stcvc	0, cr0, [r2], {1}
  4c:	000d0c0e 	andeq	r0, sp, lr, lsl #24
  50:	0000000c 	andeq	r0, r0, ip
  54:	00000040 	andeq	r0, r0, r0, asr #32
  58:	000039a0 	andeq	r3, r0, r0, lsr #19
  5c:	00000020 	andeq	r0, r0, r0, lsr #32
  60:	0000000c 	andeq	r0, r0, ip
  64:	ffffffff 			; <UNDEFINED> instruction: 0xffffffff
  68:	7c020001 	stcvc	0, cr0, [r2], {1}
  6c:	000d0c0e 	andeq	r0, sp, lr, lsl #24
  70:	0000000c 	andeq	r0, r0, ip
  74:	00000060 	andeq	r0, r0, r0, rrx
  78:	000039c0 	andeq	r3, r0, r0, asr #19
  7c:	0000001c 	andeq	r0, r0, ip, lsl r0

Disassembly of section .debug_line:

00000000 <.debug_line>:
   0:	000000b3 	strheq	r0, [r0], -r3
   4:	00810002 	addeq	r0, r1, r2
   8:	01020000 	mrseq	r0, (UNDEF: 2)
   c:	000d0efb 	strdeq	r0, [sp], -fp
  10:	01010101 	tsteq	r1, r1, lsl #2
  14:	01000000 	mrseq	r0, (UNDEF: 0)
  18:	2f010000 	svccs	0x00010000
  1c:	656d6f68 	strbvs	r6, [sp, #-3944]!	; 0xfffff098
  20:	63656e2f 	cmnvs	r5, #752	; 0x2f0
  24:	616d6f72 	smcvs	55026	; 0xd6f2
  28:	532f746e 			; <UNDEFINED> instruction: 0x532f746e
  2c:	7774666f 	ldrbvc	r6, [r4, -pc, ror #12]!
  30:	2f657261 	svccs	0x00657261
  34:	6c6f6f74 	stclvs	15, cr6, [pc], #-464	; fffffe6c <rumboot_platform_stack_area_end+0xfff80e6c>
  38:	69616863 	stmdbvs	r1!, {r0, r1, r5, r6, fp, sp, lr}^
  3c:	632f736e 			; <UNDEFINED> instruction: 0x632f736e
  40:	6574726f 	ldrbvs	r7, [r4, #-623]!	; 0xfffffd91
  44:	35612d78 	strbcc	r2, [r1, #-3448]!	; 0xfffff288
  48:	7261622d 	rsbvc	r6, r1, #-805306366	; 0xd0000002
  4c:	74656d65 	strbtvc	r6, [r5], #-3429	; 0xfffff29b
  50:	2e2f6c61 	cdpcs	12, 2, cr6, cr15, cr1, {3}
  54:	6c697562 	cfstr64vs	mvdx7, [r9], #-392	; 0xfffffe78
  58:	72732f64 	rsbsvc	r2, r3, #100, 30	; 0x190
  5c:	63672f63 	cmnvs	r7, #396	; 0x18c
  60:	2e362d63 	cdpcs	13, 3, cr2, cr6, cr3, {3}
  64:	2f302e33 	svccs	0x00302e33
  68:	6762696c 	strbvs	r6, [r2, -ip, ror #18]!
  6c:	632f6363 			; <UNDEFINED> instruction: 0x632f6363
  70:	69666e6f 	stmdbvs	r6!, {r0, r1, r2, r3, r5, r6, r9, sl, fp, sp, lr}^
  74:	72612f67 	rsbvc	r2, r1, #412	; 0x19c
  78:	6c00006d 	stcvs	0, cr0, [r0], {109}	; 0x6d
  7c:	66316269 	ldrtvs	r6, [r1], -r9, ror #4
  80:	73636e75 	cmnvc	r3, #1872	; 0x750
  84:	0100532e 	tsteq	r0, lr, lsr #6
  88:	00000000 	andeq	r0, r0, r0
  8c:	01fc0205 	mvnseq	r0, r5, lsl #4
  90:	e1030000 	mrs	r0, (UNDEF: 3)
  94:	2f300107 	svccs	0x00300107
  98:	2f2f2f2f 	svccs	0x002f2f2f
  9c:	142e0230 	strtne	r0, [lr], #-560	; 0xfffffdd0
  a0:	2f2f312f 	svccs	0x002f312f
  a4:	322f4c30 	eorcc	r4, pc, #48, 24	; 0x3000
  a8:	2f661603 	svccs	0x00661603
  ac:	2f2f2f2f 	svccs	0x002f2f2f
  b0:	02022f2f 	andeq	r2, r2, #47, 30	; 0xbc
  b4:	bf010100 	svclt	0x00010100
  b8:	02000000 	andeq	r0, r0, #0
  bc:	00008100 	andeq	r8, r0, r0, lsl #2
  c0:	fb010200 	blx	408ca <rumboot_platform_spl_start+0x8ca>
  c4:	01000d0e 	tsteq	r0, lr, lsl #26
  c8:	00010101 	andeq	r0, r1, r1, lsl #2
  cc:	00010000 	andeq	r0, r1, r0
  d0:	682f0100 	stmdavs	pc!, {r8}	; <UNPREDICTABLE>
  d4:	2f656d6f 	svccs	0x00656d6f
  d8:	7263656e 	rsbvc	r6, r3, #461373440	; 0x1b800000
  dc:	6e616d6f 	cdpvs	13, 6, cr6, cr1, cr15, {3}
  e0:	6f532f74 	svcvs	0x00532f74
  e4:	61777466 	cmnvs	r7, r6, ror #8
  e8:	742f6572 	strtvc	r6, [pc], #-1394	; f0 <rumboot_entry_point+0x24>
  ec:	636c6f6f 	cmnvs	ip, #444	; 0x1bc
  f0:	6e696168 	powvsez	f6, f1, #0.0
  f4:	6f632f73 	svcvs	0x00632f73
  f8:	78657472 	stmdavc	r5!, {r1, r4, r5, r6, sl, ip, sp, lr}^
  fc:	2d35612d 	ldfcss	f6, [r5, #-180]!	; 0xffffff4c
 100:	65726162 	ldrbvs	r6, [r2, #-354]!	; 0xfffffe9e
 104:	6174656d 	cmnvs	r4, sp, ror #10
 108:	622e2f6c 	eorvs	r2, lr, #108, 30	; 0x1b0
 10c:	646c6975 	strbtvs	r6, [ip], #-2421	; 0xfffff68b
 110:	6372732f 	cmnvs	r2, #-1140850688	; 0xbc000000
 114:	6363672f 	cmnvs	r3, #12320768	; 0xbc0000
 118:	332e362d 			; <UNDEFINED> instruction: 0x332e362d
 11c:	6c2f302e 	stcvs	0, cr3, [pc], #-184	; 6c <prefetch_handler+0xc>
 120:	63676269 	cmnvs	r7, #-1879048186	; 0x90000006
 124:	6f632f63 	svcvs	0x00632f63
 128:	6769666e 	strbvs	r6, [r9, -lr, ror #12]!
 12c:	6d72612f 	ldfvse	f6, [r2, #-188]!	; 0xffffff44
 130:	696c0000 	stmdbvs	ip!, {}^	; <UNPREDICTABLE>
 134:	75663162 	strbvc	r3, [r6, #-354]!	; 0xfffffe9e
 138:	2e73636e 	cdpcs	3, 7, cr6, cr3, cr14, {3}
 13c:	00010053 	andeq	r0, r1, r3, asr r0
 140:	05000000 	streq	r0, [r0, #-0]
 144:	0002c402 	andeq	ip, r2, r2, lsl #8
 148:	09880300 	stmibeq	r8, {r8, r9}
 14c:	30302f01 	eorscc	r2, r0, r1, lsl #30
 150:	302f2f2f 	eorcc	r2, pc, pc, lsr #30
 154:	2f2f2f2f 	svccs	0x002f2f2f
 158:	142e0230 	strtne	r0, [lr], #-560	; 0xfffffdd0
 15c:	30302f30 	eorscc	r2, r0, r0, lsr pc
 160:	2f30312f 	svccs	0x0030312f
 164:	2f4c302f 	svccs	0x004c302f
 168:	03322f30 	teqeq	r2, #48, 30	; 0xc0
 16c:	2f2f8216 	svccs	0x002f8216
 170:	2f2f2f2f 	svccs	0x002f2f2f
 174:	0002022f 	andeq	r0, r2, pc, lsr #4
 178:	00970101 	addseq	r0, r7, r1, lsl #2
 17c:	00020000 	andeq	r0, r2, r0
 180:	00000081 	andeq	r0, r0, r1, lsl #1
 184:	0efb0102 	cdpeq	1, 15, cr0, cr11, cr2, {0}
 188:	0101000d 	tsteq	r1, sp
 18c:	00000101 	andeq	r0, r0, r1, lsl #2
 190:	00000100 	andeq	r0, r0, r0, lsl #2
 194:	6f682f01 	svcvs	0x00682f01
 198:	6e2f656d 	cfsh64vs	mvdx6, mvdx15, #61
 19c:	6f726365 	svcvs	0x00726365
 1a0:	746e616d 	strbtvc	r6, [lr], #-365	; 0xfffffe93
 1a4:	666f532f 	strbtvs	r5, [pc], -pc, lsr #6
 1a8:	72617774 	rsbvc	r7, r1, #116, 14	; 0x1d00000
 1ac:	6f742f65 	svcvs	0x00742f65
 1b0:	68636c6f 	stmdavs	r3!, {r0, r1, r2, r3, r5, r6, sl, fp, sp, lr}^
 1b4:	736e6961 	cmnvc	lr, #1589248	; 0x184000
 1b8:	726f632f 	rsbvc	r6, pc, #-1140850688	; 0xbc000000
 1bc:	2d786574 	cfldr64cs	mvdx6, [r8, #-464]!	; 0xfffffe30
 1c0:	622d3561 	eorvs	r3, sp, #406847488	; 0x18400000
 1c4:	6d657261 	sfmvs	f7, 2, [r5, #-388]!	; 0xfffffe7c
 1c8:	6c617465 	cfstrdvs	mvd7, [r1], #-404	; 0xfffffe6c
 1cc:	75622e2f 	strbvc	r2, [r2, #-3631]!	; 0xfffff1d1
 1d0:	2f646c69 	svccs	0x00646c69
 1d4:	2f637273 	svccs	0x00637273
 1d8:	2d636367 	stclcs	3, cr6, [r3, #-412]!	; 0xfffffe64
 1dc:	2e332e36 	mrccs	14, 1, r2, cr3, cr6, {1}
 1e0:	696c2f30 	stmdbvs	ip!, {r4, r5, r8, r9, sl, fp, sp}^
 1e4:	63636762 	cmnvs	r3, #25690112	; 0x1880000
 1e8:	6e6f632f 	cdpvs	3, 6, cr6, cr15, cr15, {1}
 1ec:	2f676966 	svccs	0x00676966
 1f0:	006d7261 	rsbeq	r7, sp, r1, ror #4
 1f4:	62696c00 	rsbvs	r6, r9, #0, 24
 1f8:	6e756631 	mrcvs	6, 3, r6, cr5, cr1, {1}
 1fc:	532e7363 			; <UNDEFINED> instruction: 0x532e7363
 200:	00000100 	andeq	r0, r0, r0, lsl #2
 204:	02050000 	andeq	r0, r5, #0
 208:	000003c0 	andeq	r0, r0, r0, asr #7
 20c:	010aa803 	tsteq	sl, r3, lsl #16
 210:	01000202 	tsteq	r0, r2, lsl #4
 214:	00024e01 	andeq	r4, r2, r1, lsl #28
 218:	32000200 	andcc	r0, r0, #0, 4
 21c:	02000002 	andeq	r0, r0, #2
 220:	0d0efb01 	vstreq	d15, [lr, #-4]
 224:	01010100 	mrseq	r0, (UNDEF: 17)
 228:	00000001 	andeq	r0, r0, r1
 22c:	01000001 	tsteq	r0, r1
 230:	6d6f682f 	stclvs	8, cr6, [pc, #-188]!	; 17c <rumboot_entry_point+0xb0>
 234:	656e2f65 	strbvs	r2, [lr, #-3941]!	; 0xfffff09b
 238:	6d6f7263 	sfmvs	f7, 2, [pc, #-396]!	; b4 <fiq_handler+0x4>
 23c:	2f746e61 	svccs	0x00746e61
 240:	74666f53 	strbtvc	r6, [r6], #-3923	; 0xfffff0ad
 244:	65726177 	ldrbvs	r6, [r2, #-375]!	; 0xfffffe89
 248:	6f6f742f 	svcvs	0x006f742f
 24c:	6168636c 	cmnvs	r8, ip, ror #6
 250:	2f736e69 	svccs	0x00736e69
 254:	74726f63 	ldrbtvc	r6, [r2], #-3939	; 0xfffff09d
 258:	612d7865 			; <UNDEFINED> instruction: 0x612d7865
 25c:	61622d35 	cmnvs	r2, r5, lsr sp
 260:	656d6572 	strbvs	r6, [sp, #-1394]!	; 0xfffffa8e
 264:	2f6c6174 	svccs	0x006c6174
 268:	6975622e 	ldmdbvs	r5!, {r1, r2, r3, r5, r9, sp, lr}^
 26c:	732f646c 			; <UNDEFINED> instruction: 0x732f646c
 270:	6e2f6372 	mcrvs	3, 1, r6, cr15, cr2, {3}
 274:	696c7765 	stmdbvs	ip!, {r0, r2, r5, r6, r8, r9, sl, ip, sp, lr}^
 278:	2e322d62 	cdpcs	13, 3, cr2, cr2, cr2, {3}
 27c:	2e302e35 	mrccs	14, 1, r2, cr0, cr5, {1}
 280:	37313032 			; <UNDEFINED> instruction: 0x37313032
 284:	39313530 	ldmdbcc	r1!, {r4, r5, r8, sl, ip, sp}
 288:	77656e2f 	strbvc	r6, [r5, -pc, lsr #28]!
 28c:	2f62696c 	svccs	0x0062696c
 290:	6362696c 	cmnvs	r2, #108, 18	; 0x1b0000
 294:	63616d2f 	cmnvs	r1, #3008	; 0xbc0
 298:	656e6968 	strbvs	r6, [lr, #-2408]!	; 0xfffff698
 29c:	6d72612f 	ldfvse	f6, [r2, #-188]!	; 0xffffff44
 2a0:	2f2e2e2f 	svccs	0x002e2e2f
 2a4:	732f2e2e 			; <UNDEFINED> instruction: 0x732f2e2e
 2a8:	6e697274 	mcrvs	2, 3, r7, cr9, cr4, {3}
 2ac:	682f0067 	stmdavs	pc!, {r0, r1, r2, r5, r6}	; <UNPREDICTABLE>
 2b0:	2f656d6f 	svccs	0x00656d6f
 2b4:	7263656e 	rsbvc	r6, r3, #461373440	; 0x1b800000
 2b8:	6e616d6f 	cdpvs	13, 6, cr6, cr1, cr15, {3}
 2bc:	6f532f74 	svcvs	0x00532f74
 2c0:	61777466 	cmnvs	r7, r6, ror #8
 2c4:	742f6572 	strtvc	r6, [pc], #-1394	; 2cc <.divsi3_skip_div0_test>
 2c8:	636c6f6f 	cmnvs	ip, #444	; 0x1bc
 2cc:	6e696168 	powvsez	f6, f1, #0.0
 2d0:	6f632f73 	svcvs	0x00632f73
 2d4:	78657472 	stmdavc	r5!, {r1, r4, r5, r6, sl, ip, sp, lr}^
 2d8:	2d35612d 	ldfcss	f6, [r5, #-180]!	; 0xffffff4c
 2dc:	65726162 	ldrbvs	r6, [r2, #-354]!	; 0xfffffe9e
 2e0:	6174656d 	cmnvs	r4, sp, ror #10
 2e4:	622e2f6c 	eorvs	r2, lr, #108, 30	; 0x1b0
 2e8:	646c6975 	strbtvs	r6, [ip], #-2421	; 0xfffff68b
 2ec:	6d72612f 	ldfvse	f6, [r2, #-188]!	; 0xffffff44
 2f0:	6d63722d 	sfmvs	f7, 2, [r3, #-180]!	; 0xffffff4c
 2f4:	6261652d 	rsbvs	r6, r1, #188743680	; 0xb400000
 2f8:	2f666869 	svccs	0x00666869
 2fc:	6c697562 	cfstr64vs	mvdx7, [r9], #-392	; 0xfffffe78
 300:	6f6f7464 	svcvs	0x006f7464
 304:	6c2f736c 	stcvs	3, cr7, [pc], #-432	; 15c <rumboot_entry_point+0x90>
 308:	672f6269 	strvs	r6, [pc, -r9, ror #4]!
 30c:	612f6363 			; <UNDEFINED> instruction: 0x612f6363
 310:	722d6d72 	eorvc	r6, sp, #7296	; 0x1c80
 314:	652d6d63 	strvs	r6, [sp, #-3427]!	; 0xfffff29d
 318:	68696261 	stmdavs	r9!, {r0, r5, r6, r9, sp, lr}^
 31c:	2e362f66 	cdpcs	15, 3, cr2, cr6, cr6, {3}
 320:	2f302e33 	svccs	0x00302e33
 324:	6c636e69 	stclvs	14, cr6, [r3], #-420	; 0xfffffe5c
 328:	00656475 	rsbeq	r6, r5, r5, ror r4
 32c:	6d6f682f 	stclvs	8, cr6, [pc, #-188]!	; 278 <__udivsi3+0x7c>
 330:	656e2f65 	strbvs	r2, [lr, #-3941]!	; 0xfffff09b
 334:	6d6f7263 	sfmvs	f7, 2, [pc, #-396]!	; 1b0 <call_3+0xc>
 338:	2f746e61 	svccs	0x00746e61
 33c:	74666f53 	strbtvc	r6, [r6], #-3923	; 0xfffff0ad
 340:	65726177 	ldrbvs	r6, [r2, #-375]!	; 0xfffffe89
 344:	6f6f742f 	svcvs	0x006f742f
 348:	6168636c 	cmnvs	r8, ip, ror #6
 34c:	2f736e69 	svccs	0x00736e69
 350:	74726f63 	ldrbtvc	r6, [r2], #-3939	; 0xfffff09d
 354:	612d7865 			; <UNDEFINED> instruction: 0x612d7865
 358:	61622d35 	cmnvs	r2, r5, lsr sp
 35c:	656d6572 	strbvs	r6, [sp, #-1394]!	; 0xfffffa8e
 360:	2f6c6174 	svccs	0x006c6174
 364:	6975622e 	ldmdbvs	r5!, {r1, r2, r3, r5, r9, sp, lr}^
 368:	732f646c 			; <UNDEFINED> instruction: 0x732f646c
 36c:	6e2f6372 	mcrvs	3, 1, r6, cr15, cr2, {3}
 370:	696c7765 	stmdbvs	ip!, {r0, r2, r5, r6, r8, r9, sl, ip, sp, lr}^
 374:	2e322d62 	cdpcs	13, 3, cr2, cr2, cr2, {3}
 378:	2e302e35 	mrccs	14, 1, r2, cr0, cr5, {1}
 37c:	37313032 			; <UNDEFINED> instruction: 0x37313032
 380:	39313530 	ldmdbcc	r1!, {r4, r5, r8, sl, ip, sp}
 384:	77656e2f 	strbvc	r6, [r5, -pc, lsr #28]!
 388:	2f62696c 	svccs	0x0062696c
 38c:	6362696c 	cmnvs	r2, #108, 18	; 0x1b0000
 390:	636e692f 	cmnvs	lr, #770048	; 0xbc000
 394:	6564756c 	strbvs	r7, [r4, #-1388]!	; 0xfffffa94
 398:	7379732f 	cmnvc	r9, #-1140850688	; 0xbc000000
 39c:	6f682f00 	svcvs	0x00682f00
 3a0:	6e2f656d 	cfsh64vs	mvdx6, mvdx15, #61
 3a4:	6f726365 	svcvs	0x00726365
 3a8:	746e616d 	strbtvc	r6, [lr], #-365	; 0xfffffe93
 3ac:	666f532f 	strbtvs	r5, [pc], -pc, lsr #6
 3b0:	72617774 	rsbvc	r7, r1, #116, 14	; 0x1d00000
 3b4:	6f742f65 	svcvs	0x00742f65
 3b8:	68636c6f 	stmdavs	r3!, {r0, r1, r2, r3, r5, r6, sl, fp, sp, lr}^
 3bc:	736e6961 	cmnvc	lr, #1589248	; 0x184000
 3c0:	726f632f 	rsbvc	r6, pc, #-1140850688	; 0xbc000000
 3c4:	2d786574 	cfldr64cs	mvdx6, [r8, #-464]!	; 0xfffffe30
 3c8:	622d3561 	eorvs	r3, sp, #406847488	; 0x18400000
 3cc:	6d657261 	sfmvs	f7, 2, [r5, #-388]!	; 0xfffffe7c
 3d0:	6c617465 	cfstrdvs	mvd7, [r1], #-404	; 0xfffffe6c
 3d4:	75622e2f 	strbvc	r2, [r2, #-3631]!	; 0xfffff1d1
 3d8:	2f646c69 	svccs	0x00646c69
 3dc:	2f637273 	svccs	0x00637273
 3e0:	6c77656e 	cfldr64vs	mvdx6, [r7], #-440	; 0xfffffe48
 3e4:	322d6269 	eorcc	r6, sp, #-1879048186	; 0x90000006
 3e8:	302e352e 	eorcc	r3, lr, lr, lsr #10
 3ec:	3130322e 	teqcc	r0, lr, lsr #4
 3f0:	31353037 	teqcc	r5, r7, lsr r0
 3f4:	656e2f39 	strbvs	r2, [lr, #-3897]!	; 0xfffff0c7
 3f8:	62696c77 	rsbvs	r6, r9, #30464	; 0x7700
 3fc:	62696c2f 	rsbvs	r6, r9, #12032	; 0x2f00
 400:	6e692f63 	cdpvs	15, 6, cr2, cr9, cr3, {3}
 404:	64756c63 	ldrbtvs	r6, [r5], #-3171	; 0xfffff39d
 408:	6d000065 	stcvs	0, cr0, [r0, #-404]	; 0xfffffe6c
 40c:	70636d65 	rsbvc	r6, r3, r5, ror #26
 410:	00632e79 	rsbeq	r2, r3, r9, ror lr
 414:	73000001 	movwvc	r0, #1
 418:	65646474 	strbvs	r6, [r4, #-1140]!	; 0xfffffb8c
 41c:	00682e66 	rsbeq	r2, r8, r6, ror #28
 420:	6c000002 	stcvs	0, cr0, [r0], {2}
 424:	2e6b636f 	cdpcs	3, 6, cr6, cr11, cr15, {3}
 428:	00030068 	andeq	r0, r3, r8, rrx
 42c:	79745f00 	ldmdbvc	r4!, {r8, r9, sl, fp, ip, lr}^
 430:	2e736570 	mrccs	5, 3, r6, cr3, cr0, {3}
 434:	00030068 	andeq	r0, r3, r8, rrx
 438:	65657200 	strbvs	r7, [r5, #-512]!	; 0xfffffe00
 43c:	682e746e 	stmdavs	lr!, {r1, r2, r3, r5, r6, sl, ip, sp, lr}
 440:	00000300 	andeq	r0, r0, r0, lsl #6
 444:	69727473 	ldmdbvs	r2!, {r0, r1, r4, r5, r6, sl, ip, sp, lr}^
 448:	682e676e 	stmdavs	lr!, {r1, r2, r3, r5, r6, r8, r9, sl, sp, lr}
 44c:	00000400 	andeq	r0, r0, r0, lsl #8
 450:	02050000 	andeq	r0, r5, #0
 454:	000039a0 	andeq	r3, r0, r0, lsr #19
 458:	51013903 	tstpl	r1, r3, lsl #18
 45c:	034a2e03 	movteq	r2, #44547	; 0xae03
 460:	06022e54 			; <UNDEFINED> instruction: 0x06022e54
 464:	ec010100 	stfs	f0, [r1], {-0}
 468:	02000002 	andeq	r0, r0, #2
 46c:	0002d100 	andeq	sp, r2, r0, lsl #2
 470:	fb010200 	blx	40c7a <rumboot_platform_spl_start+0xc7a>
 474:	01000d0e 	tsteq	r0, lr, lsl #26
 478:	00010101 	andeq	r0, r1, r1, lsl #2
 47c:	00010000 	andeq	r0, r1, r0
 480:	682f0100 	stmdavs	pc!, {r8}	; <UNPREDICTABLE>
 484:	2f656d6f 	svccs	0x00656d6f
 488:	7263656e 	rsbvc	r6, r3, #461373440	; 0x1b800000
 48c:	6e616d6f 	cdpvs	13, 6, cr6, cr1, cr15, {3}
 490:	6f532f74 	svcvs	0x00532f74
 494:	61777466 	cmnvs	r7, r6, ror #8
 498:	742f6572 	strtvc	r6, [pc], #-1394	; 4a0 <hostmode_loop+0xc0>
 49c:	636c6f6f 	cmnvs	ip, #444	; 0x1bc
 4a0:	6e696168 	powvsez	f6, f1, #0.0
 4a4:	6f632f73 	svcvs	0x00632f73
 4a8:	78657472 	stmdavc	r5!, {r1, r4, r5, r6, sl, ip, sp, lr}^
 4ac:	2d35612d 	ldfcss	f6, [r5, #-180]!	; 0xffffff4c
 4b0:	65726162 	ldrbvs	r6, [r2, #-354]!	; 0xfffffe9e
 4b4:	6174656d 	cmnvs	r4, sp, ror #10
 4b8:	622e2f6c 	eorvs	r2, lr, #108, 30	; 0x1b0
 4bc:	646c6975 	strbtvs	r6, [ip], #-2421	; 0xfffff68b
 4c0:	6372732f 	cmnvs	r2, #-1140850688	; 0xbc000000
 4c4:	77656e2f 	strbvc	r6, [r5, -pc, lsr #28]!
 4c8:	2d62696c 			; <UNDEFINED> instruction: 0x2d62696c
 4cc:	2e352e32 	mrccs	14, 1, r2, cr5, cr2, {1}
 4d0:	30322e30 	eorscc	r2, r2, r0, lsr lr
 4d4:	35303731 	ldrcc	r3, [r0, #-1841]!	; 0xfffff8cf
 4d8:	6e2f3931 			; <UNDEFINED> instruction: 0x6e2f3931
 4dc:	696c7765 	stmdbvs	ip!, {r0, r2, r5, r6, r8, r9, sl, ip, sp, lr}^
 4e0:	696c2f62 	stmdbvs	ip!, {r1, r5, r6, r8, r9, sl, fp, sp}^
 4e4:	732f6362 			; <UNDEFINED> instruction: 0x732f6362
 4e8:	6e697274 	mcrvs	2, 3, r7, cr9, cr4, {3}
 4ec:	682f0067 	stmdavs	pc!, {r0, r1, r2, r5, r6}	; <UNPREDICTABLE>
 4f0:	2f656d6f 	svccs	0x00656d6f
 4f4:	7263656e 	rsbvc	r6, r3, #461373440	; 0x1b800000
 4f8:	6e616d6f 	cdpvs	13, 6, cr6, cr1, cr15, {3}
 4fc:	6f532f74 	svcvs	0x00532f74
 500:	61777466 	cmnvs	r7, r6, ror #8
 504:	742f6572 	strtvc	r6, [pc], #-1394	; 50c <hostmode_loop+0x12c>
 508:	636c6f6f 	cmnvs	ip, #444	; 0x1bc
 50c:	6e696168 	powvsez	f6, f1, #0.0
 510:	6f632f73 	svcvs	0x00632f73
 514:	78657472 	stmdavc	r5!, {r1, r4, r5, r6, sl, ip, sp, lr}^
 518:	2d35612d 	ldfcss	f6, [r5, #-180]!	; 0xffffff4c
 51c:	65726162 	ldrbvs	r6, [r2, #-354]!	; 0xfffffe9e
 520:	6174656d 	cmnvs	r4, sp, ror #10
 524:	622e2f6c 	eorvs	r2, lr, #108, 30	; 0x1b0
 528:	646c6975 	strbtvs	r6, [ip], #-2421	; 0xfffff68b
 52c:	6d72612f 	ldfvse	f6, [r2, #-188]!	; 0xffffff44
 530:	6d63722d 	sfmvs	f7, 2, [r3, #-180]!	; 0xffffff4c
 534:	6261652d 	rsbvs	r6, r1, #188743680	; 0xb400000
 538:	2f666869 	svccs	0x00666869
 53c:	6c697562 	cfstr64vs	mvdx7, [r9], #-392	; 0xfffffe78
 540:	6f6f7464 	svcvs	0x006f7464
 544:	6c2f736c 	stcvs	3, cr7, [pc], #-432	; 39c <.divsi3_skip_div0_test+0xd0>
 548:	672f6269 	strvs	r6, [pc, -r9, ror #4]!
 54c:	612f6363 			; <UNDEFINED> instruction: 0x612f6363
 550:	722d6d72 	eorvc	r6, sp, #7296	; 0x1c80
 554:	652d6d63 	strvs	r6, [sp, #-3427]!	; 0xfffff29d
 558:	68696261 	stmdavs	r9!, {r0, r5, r6, r9, sp, lr}^
 55c:	2e362f66 	cdpcs	15, 3, cr2, cr6, cr6, {3}
 560:	2f302e33 	svccs	0x00302e33
 564:	6c636e69 	stclvs	14, cr6, [r3], #-420	; 0xfffffe5c
 568:	00656475 	rsbeq	r6, r5, r5, ror r4
 56c:	6d6f682f 	stclvs	8, cr6, [pc, #-188]!	; 4b8 <hostmode_loop+0xd8>
 570:	656e2f65 	strbvs	r2, [lr, #-3941]!	; 0xfffff09b
 574:	6d6f7263 	sfmvs	f7, 2, [pc, #-396]!	; 3f0 <hostmode_loop+0x10>
 578:	2f746e61 	svccs	0x00746e61
 57c:	74666f53 	strbtvc	r6, [r6], #-3923	; 0xfffff0ad
 580:	65726177 	ldrbvs	r6, [r2, #-375]!	; 0xfffffe89
 584:	6f6f742f 	svcvs	0x006f742f
 588:	6168636c 	cmnvs	r8, ip, ror #6
 58c:	2f736e69 	svccs	0x00736e69
 590:	74726f63 	ldrbtvc	r6, [r2], #-3939	; 0xfffff09d
 594:	612d7865 			; <UNDEFINED> instruction: 0x612d7865
 598:	61622d35 	cmnvs	r2, r5, lsr sp
 59c:	656d6572 	strbvs	r6, [sp, #-1394]!	; 0xfffffa8e
 5a0:	2f6c6174 	svccs	0x006c6174
 5a4:	6975622e 	ldmdbvs	r5!, {r1, r2, r3, r5, r9, sp, lr}^
 5a8:	732f646c 			; <UNDEFINED> instruction: 0x732f646c
 5ac:	6e2f6372 	mcrvs	3, 1, r6, cr15, cr2, {3}
 5b0:	696c7765 	stmdbvs	ip!, {r0, r2, r5, r6, r8, r9, sl, ip, sp, lr}^
 5b4:	2e322d62 	cdpcs	13, 3, cr2, cr2, cr2, {3}
 5b8:	2e302e35 	mrccs	14, 1, r2, cr0, cr5, {1}
 5bc:	37313032 			; <UNDEFINED> instruction: 0x37313032
 5c0:	39313530 	ldmdbcc	r1!, {r4, r5, r8, sl, ip, sp}
 5c4:	77656e2f 	strbvc	r6, [r5, -pc, lsr #28]!
 5c8:	2f62696c 	svccs	0x0062696c
 5cc:	6362696c 	cmnvs	r2, #108, 18	; 0x1b0000
 5d0:	636e692f 	cmnvs	lr, #770048	; 0xbc000
 5d4:	6564756c 	strbvs	r7, [r4, #-1388]!	; 0xfffffa94
 5d8:	7379732f 	cmnvc	r9, #-1140850688	; 0xbc000000
 5dc:	6f682f00 	svcvs	0x00682f00
 5e0:	6e2f656d 	cfsh64vs	mvdx6, mvdx15, #61
 5e4:	6f726365 	svcvs	0x00726365
 5e8:	746e616d 	strbtvc	r6, [lr], #-365	; 0xfffffe93
 5ec:	666f532f 	strbtvs	r5, [pc], -pc, lsr #6
 5f0:	72617774 	rsbvc	r7, r1, #116, 14	; 0x1d00000
 5f4:	6f742f65 	svcvs	0x00742f65
 5f8:	68636c6f 	stmdavs	r3!, {r0, r1, r2, r3, r5, r6, sl, fp, sp, lr}^
 5fc:	736e6961 	cmnvc	lr, #1589248	; 0x184000
 600:	726f632f 	rsbvc	r6, pc, #-1140850688	; 0xbc000000
 604:	2d786574 	cfldr64cs	mvdx6, [r8, #-464]!	; 0xfffffe30
 608:	622d3561 	eorvs	r3, sp, #406847488	; 0x18400000
 60c:	6d657261 	sfmvs	f7, 2, [r5, #-388]!	; 0xfffffe7c
 610:	6c617465 	cfstrdvs	mvd7, [r1], #-404	; 0xfffffe6c
 614:	75622e2f 	strbvc	r2, [r2, #-3631]!	; 0xfffff1d1
 618:	2f646c69 	svccs	0x00646c69
 61c:	2f637273 	svccs	0x00637273
 620:	6c77656e 	cfldr64vs	mvdx6, [r7], #-440	; 0xfffffe48
 624:	322d6269 	eorcc	r6, sp, #-1879048186	; 0x90000006
 628:	302e352e 	eorcc	r3, lr, lr, lsr #10
 62c:	3130322e 	teqcc	r0, lr, lsr #4
 630:	31353037 	teqcc	r5, r7, lsr r0
 634:	656e2f39 	strbvs	r2, [lr, #-3897]!	; 0xfffff0c7
 638:	62696c77 	rsbvs	r6, r9, #30464	; 0x7700
 63c:	62696c2f 	rsbvs	r6, r9, #12032	; 0x2f00
 640:	74732f63 	ldrbtvc	r2, [r3], #-3939	; 0xfffff09d
 644:	676e6972 			; <UNDEFINED> instruction: 0x676e6972
 648:	2f2e2e2f 	svccs	0x002e2e2f
 64c:	70797463 	rsbsvc	r7, r9, r3, ror #8
 650:	2e2e2f65 	cdpcs	15, 2, cr2, cr14, cr5, {3}
 654:	636f6c2f 	cmnvs	pc, #12032	; 0x2f00
 658:	00656c61 	rsbeq	r6, r5, r1, ror #24
 65c:	6d6f682f 	stclvs	8, cr6, [pc, #-188]!	; 5a8 <hostmode_loop+0x1c8>
 660:	656e2f65 	strbvs	r2, [lr, #-3941]!	; 0xfffff09b
 664:	6d6f7263 	sfmvs	f7, 2, [pc, #-396]!	; 4e0 <hostmode_loop+0x100>
 668:	2f746e61 	svccs	0x00746e61
 66c:	74666f53 	strbtvc	r6, [r6], #-3923	; 0xfffff0ad
 670:	65726177 	ldrbvs	r6, [r2, #-375]!	; 0xfffffe89
 674:	6f6f742f 	svcvs	0x006f742f
 678:	6168636c 	cmnvs	r8, ip, ror #6
 67c:	2f736e69 	svccs	0x00736e69
 680:	74726f63 	ldrbtvc	r6, [r2], #-3939	; 0xfffff09d
 684:	612d7865 			; <UNDEFINED> instruction: 0x612d7865
 688:	61622d35 	cmnvs	r2, r5, lsr sp
 68c:	656d6572 	strbvs	r6, [sp, #-1394]!	; 0xfffffa8e
 690:	2f6c6174 	svccs	0x006c6174
 694:	6975622e 	ldmdbvs	r5!, {r1, r2, r3, r5, r9, sp, lr}^
 698:	732f646c 			; <UNDEFINED> instruction: 0x732f646c
 69c:	6e2f6372 	mcrvs	3, 1, r6, cr15, cr2, {3}
 6a0:	696c7765 	stmdbvs	ip!, {r0, r2, r5, r6, r8, r9, sl, ip, sp, lr}^
 6a4:	2e322d62 	cdpcs	13, 3, cr2, cr2, cr2, {3}
 6a8:	2e302e35 	mrccs	14, 1, r2, cr0, cr5, {1}
 6ac:	37313032 			; <UNDEFINED> instruction: 0x37313032
 6b0:	39313530 	ldmdbcc	r1!, {r4, r5, r8, sl, ip, sp}
 6b4:	77656e2f 	strbvc	r6, [r5, -pc, lsr #28]!
 6b8:	2f62696c 	svccs	0x0062696c
 6bc:	6362696c 	cmnvs	r2, #108, 18	; 0x1b0000
 6c0:	636e692f 	cmnvs	lr, #770048	; 0xbc000
 6c4:	6564756c 	strbvs	r7, [r4, #-1388]!	; 0xfffffa94
 6c8:	656d0000 	strbvs	r0, [sp, #-0]!
 6cc:	7465736d 	strbtvc	r7, [r5], #-877	; 0xfffffc93
 6d0:	0100632e 	tsteq	r0, lr, lsr #6
 6d4:	74730000 	ldrbtvc	r0, [r3], #-0
 6d8:	66656464 	strbtvs	r6, [r5], -r4, ror #8
 6dc:	0200682e 	andeq	r6, r0, #3014656	; 0x2e0000
 6e0:	6f6c0000 	svcvs	0x006c0000
 6e4:	682e6b63 	stmdavs	lr!, {r0, r1, r5, r6, r8, r9, fp, sp, lr}
 6e8:	00000300 	andeq	r0, r0, r0, lsl #6
 6ec:	7079745f 	rsbsvc	r7, r9, pc, asr r4
 6f0:	682e7365 	stmdavs	lr!, {r0, r2, r5, r6, r8, r9, ip, sp, lr}
 6f4:	00000300 	andeq	r0, r0, r0, lsl #6
 6f8:	6e656572 	mcrvs	5, 3, r6, cr5, cr2, {3}
 6fc:	00682e74 	rsbeq	r2, r8, r4, ror lr
 700:	73000003 	movwvc	r0, #3
 704:	6f6c7465 	svcvs	0x006c7465
 708:	656c6163 	strbvs	r6, [ip, #-355]!	; 0xfffffe9d
 70c:	0400682e 	streq	r6, [r0], #-2094	; 0xfffff7d2
 710:	74730000 	ldrbtvc	r0, [r3], #-0
 714:	62696c64 	rsbvs	r6, r9, #100, 24	; 0x6400
 718:	0500682e 	streq	r6, [r0, #-2094]	; 0xfffff7d2
 71c:	63770000 	cmnvs	r7, #0
 720:	2e726168 	rpwcssz	f6, f2, #0.0
 724:	00050068 	andeq	r0, r5, r8, rrx
 728:	636f6c00 	cmnvs	pc, #0, 24
 72c:	2e656c61 	cdpcs	12, 6, cr6, cr5, cr1, {3}
 730:	00050068 	andeq	r0, r5, r8, rrx
 734:	72747300 	rsbsvc	r7, r4, #0, 6
 738:	2e676e69 	cdpcs	14, 6, cr6, cr7, cr9, {3}
 73c:	00050068 	andeq	r0, r5, r8, rrx
 740:	05000000 	streq	r0, [r0, #-0]
 744:	0039c002 	eorseq	ip, r9, r2
 748:	01300300 	teqeq	r0, r0, lsl #6
 74c:	2e32032f 	cdpcs	3, 3, cr0, cr2, cr15, {1}
 750:	04022b4e 	streq	r2, [r2], #-2894	; 0xfffff4b2
 754:	Address 0x0000000000000754 is out of bounds.


Disassembly of section .debug_info:

00000000 <.debug_info>:
       0:	0000010a 	andeq	r0, r0, sl, lsl #2
       4:	00000002 	andeq	r0, r0, r2
       8:	01040000 	mrseq	r0, (UNDEF: 4)
       c:	00000000 	andeq	r0, r0, r0
      10:	000001fc 	strdeq	r0, [r0], -ip
      14:	000002c4 	andeq	r0, r0, r4, asr #5
      18:	6d6f682f 	stclvs	8, cr6, [pc, #-188]!	; ffffff64 <rumboot_platform_stack_area_end+0xfff80f64>
      1c:	656e2f65 	strbvs	r2, [lr, #-3941]!	; 0xfffff09b
      20:	6d6f7263 	sfmvs	f7, 2, [pc, #-396]!	; fffffe9c <rumboot_platform_stack_area_end+0xfff80e9c>
      24:	2f746e61 	svccs	0x00746e61
      28:	74666f53 	strbtvc	r6, [r6], #-3923	; 0xfffff0ad
      2c:	65726177 	ldrbvs	r6, [r2, #-375]!	; 0xfffffe89
      30:	6f6f742f 	svcvs	0x006f742f
      34:	6168636c 	cmnvs	r8, ip, ror #6
      38:	2f736e69 	svccs	0x00736e69
      3c:	74726f63 	ldrbtvc	r6, [r2], #-3939	; 0xfffff09d
      40:	612d7865 			; <UNDEFINED> instruction: 0x612d7865
      44:	61622d35 	cmnvs	r2, r5, lsr sp
      48:	656d6572 	strbvs	r6, [sp, #-1394]!	; 0xfffffa8e
      4c:	2f6c6174 	svccs	0x006c6174
      50:	6975622e 	ldmdbvs	r5!, {r1, r2, r3, r5, r9, sp, lr}^
      54:	732f646c 			; <UNDEFINED> instruction: 0x732f646c
      58:	672f6372 			; <UNDEFINED> instruction: 0x672f6372
      5c:	362d6363 	strtcc	r6, [sp], -r3, ror #6
      60:	302e332e 	eorcc	r3, lr, lr, lsr #6
      64:	62696c2f 	rsbvs	r6, r9, #12032	; 0x2f00
      68:	2f636367 	svccs	0x00636367
      6c:	666e6f63 	strbtvs	r6, [lr], -r3, ror #30
      70:	612f6769 			; <UNDEFINED> instruction: 0x612f6769
      74:	6c2f6d72 	stcvs	13, cr6, [pc], #-456	; fffffeb4 <rumboot_platform_stack_area_end+0xfff80eb4>
      78:	66316269 	ldrtvs	r6, [r1], -r9, ror #4
      7c:	73636e75 	cmnvc	r3, #1872	; 0x750
      80:	2f00532e 	svccs	0x0000532e
      84:	656d6f68 	strbvs	r6, [sp, #-3944]!	; 0xfffff098
      88:	63656e2f 	cmnvs	r5, #752	; 0x2f0
      8c:	616d6f72 	smcvs	55026	; 0xd6f2
      90:	532f746e 			; <UNDEFINED> instruction: 0x532f746e
      94:	7774666f 	ldrbvc	r6, [r4, -pc, ror #12]!
      98:	2f657261 	svccs	0x00657261
      9c:	6c6f6f74 	stclvs	15, cr6, [pc], #-464	; fffffed4 <rumboot_platform_stack_area_end+0xfff80ed4>
      a0:	69616863 	stmdbvs	r1!, {r0, r1, r5, r6, fp, sp, lr}^
      a4:	632f736e 			; <UNDEFINED> instruction: 0x632f736e
      a8:	6574726f 	ldrbvs	r7, [r4, #-623]!	; 0xfffffd91
      ac:	35612d78 	strbcc	r2, [r1, #-3448]!	; 0xfffff288
      b0:	7261622d 	rsbvc	r6, r1, #-805306366	; 0xd0000002
      b4:	74656d65 	strbtvc	r6, [r5], #-3429	; 0xfffff29b
      b8:	2e2f6c61 	cdpcs	12, 2, cr6, cr15, cr1, {3}
      bc:	6c697562 	cfstr64vs	mvdx7, [r9], #-392	; 0xfffffe78
      c0:	72612f64 	rsbvc	r2, r1, #100, 30	; 0x190
      c4:	63722d6d 	cmnvs	r2, #6976	; 0x1b40
      c8:	61652d6d 	cmnvs	r5, sp, ror #26
      cc:	66686962 	strbtvs	r6, [r8], -r2, ror #18
      d0:	6975622f 	ldmdbvs	r5!, {r0, r1, r2, r3, r5, r9, sp, lr}^
      d4:	622f646c 	eorvs	r6, pc, #108, 8	; 0x6c000000
      d8:	646c6975 	strbtvs	r6, [ip], #-2421	; 0xfffff68b
      dc:	2d63632d 	stclcs	3, cr6, [r3, #-180]!	; 0xffffff4c
      e0:	2d636367 	stclcs	3, cr6, [r3, #-412]!	; 0xfffffe64
      e4:	616e6966 	cmnvs	lr, r6, ror #18
      e8:	72612f6c 	rsbvc	r2, r1, #108, 30	; 0x1b0
      ec:	63722d6d 	cmnvs	r2, #6976	; 0x1b40
      f0:	61652d6d 	cmnvs	r5, sp, ror #26
      f4:	66686962 	strbtvs	r6, [r8], -r2, ror #18
      f8:	62696c2f 	rsbvs	r6, r9, #12032	; 0x2f00
      fc:	00636367 	rsbeq	r6, r3, r7, ror #6
     100:	20554e47 	subscs	r4, r5, r7, asr #28
     104:	32205341 	eorcc	r5, r0, #67108865	; 0x4000001
     108:	0038322e 	eorseq	r3, r8, lr, lsr #4
     10c:	010a8001 	tsteq	sl, r1
     110:	00020000 	andeq	r0, r2, r0
     114:	00000014 	andeq	r0, r0, r4, lsl r0
     118:	00b70104 	adcseq	r0, r7, r4, lsl #2
     11c:	02c40000 	sbceq	r0, r4, #0
     120:	03c00000 	biceq	r0, r0, #0
     124:	682f0000 	stmdavs	pc!, {}	; <UNPREDICTABLE>
     128:	2f656d6f 	svccs	0x00656d6f
     12c:	7263656e 	rsbvc	r6, r3, #461373440	; 0x1b800000
     130:	6e616d6f 	cdpvs	13, 6, cr6, cr1, cr15, {3}
     134:	6f532f74 	svcvs	0x00532f74
     138:	61777466 	cmnvs	r7, r6, ror #8
     13c:	742f6572 	strtvc	r6, [pc], #-1394	; 144 <rumboot_entry_point+0x78>
     140:	636c6f6f 	cmnvs	ip, #444	; 0x1bc
     144:	6e696168 	powvsez	f6, f1, #0.0
     148:	6f632f73 	svcvs	0x00632f73
     14c:	78657472 	stmdavc	r5!, {r1, r4, r5, r6, sl, ip, sp, lr}^
     150:	2d35612d 	ldfcss	f6, [r5, #-180]!	; 0xffffff4c
     154:	65726162 	ldrbvs	r6, [r2, #-354]!	; 0xfffffe9e
     158:	6174656d 	cmnvs	r4, sp, ror #10
     15c:	622e2f6c 	eorvs	r2, lr, #108, 30	; 0x1b0
     160:	646c6975 	strbtvs	r6, [ip], #-2421	; 0xfffff68b
     164:	6372732f 	cmnvs	r2, #-1140850688	; 0xbc000000
     168:	6363672f 	cmnvs	r3, #12320768	; 0xbc0000
     16c:	332e362d 			; <UNDEFINED> instruction: 0x332e362d
     170:	6c2f302e 	stcvs	0, cr3, [pc], #-184	; c0 <fiq_handler+0x10>
     174:	63676269 	cmnvs	r7, #-1879048186	; 0x90000006
     178:	6f632f63 	svcvs	0x00632f63
     17c:	6769666e 	strbvs	r6, [r9, -lr, ror #12]!
     180:	6d72612f 	ldfvse	f6, [r2, #-188]!	; 0xffffff44
     184:	62696c2f 	rsbvs	r6, r9, #12032	; 0x2f00
     188:	6e756631 	mrcvs	6, 3, r6, cr5, cr1, {1}
     18c:	532e7363 			; <UNDEFINED> instruction: 0x532e7363
     190:	6f682f00 	svcvs	0x00682f00
     194:	6e2f656d 	cfsh64vs	mvdx6, mvdx15, #61
     198:	6f726365 	svcvs	0x00726365
     19c:	746e616d 	strbtvc	r6, [lr], #-365	; 0xfffffe93
     1a0:	666f532f 	strbtvs	r5, [pc], -pc, lsr #6
     1a4:	72617774 	rsbvc	r7, r1, #116, 14	; 0x1d00000
     1a8:	6f742f65 	svcvs	0x00742f65
     1ac:	68636c6f 	stmdavs	r3!, {r0, r1, r2, r3, r5, r6, sl, fp, sp, lr}^
     1b0:	736e6961 	cmnvc	lr, #1589248	; 0x184000
     1b4:	726f632f 	rsbvc	r6, pc, #-1140850688	; 0xbc000000
     1b8:	2d786574 	cfldr64cs	mvdx6, [r8, #-464]!	; 0xfffffe30
     1bc:	622d3561 	eorvs	r3, sp, #406847488	; 0x18400000
     1c0:	6d657261 	sfmvs	f7, 2, [r5, #-388]!	; 0xfffffe7c
     1c4:	6c617465 	cfstrdvs	mvd7, [r1], #-404	; 0xfffffe6c
     1c8:	75622e2f 	strbvc	r2, [r2, #-3631]!	; 0xfffff1d1
     1cc:	2f646c69 	svccs	0x00646c69
     1d0:	2d6d7261 	sfmcs	f7, 2, [sp, #-388]!	; 0xfffffe7c
     1d4:	2d6d6372 	stclcs	3, cr6, [sp, #-456]!	; 0xfffffe38
     1d8:	69626165 	stmdbvs	r2!, {r0, r2, r5, r6, r8, sp, lr}^
     1dc:	622f6668 	eorvs	r6, pc, #104, 12	; 0x6800000
     1e0:	646c6975 	strbtvs	r6, [ip], #-2421	; 0xfffff68b
     1e4:	6975622f 	ldmdbvs	r5!, {r0, r1, r2, r3, r5, r9, sp, lr}^
     1e8:	632d646c 			; <UNDEFINED> instruction: 0x632d646c
     1ec:	63672d63 	cmnvs	r7, #6336	; 0x18c0
     1f0:	69662d63 	stmdbvs	r6!, {r0, r1, r5, r6, r8, sl, fp, sp}^
     1f4:	2f6c616e 	svccs	0x006c616e
     1f8:	2d6d7261 	sfmcs	f7, 2, [sp, #-388]!	; 0xfffffe7c
     1fc:	2d6d6372 	stclcs	3, cr6, [sp, #-456]!	; 0xfffffe38
     200:	69626165 	stmdbvs	r2!, {r0, r2, r5, r6, r8, sp, lr}^
     204:	6c2f6668 	stcvs	6, cr6, [pc], #-416	; 6c <prefetch_handler+0xc>
     208:	63676269 	cmnvs	r7, #-1879048186	; 0x90000006
     20c:	4e470063 	cdpmi	0, 4, cr0, cr7, cr3, {3}
     210:	53412055 	movtpl	r2, #4181	; 0x1055
     214:	322e3220 	eorcc	r3, lr, #32, 4
     218:	80010038 	andhi	r0, r1, r8, lsr r0
     21c:	0000010a 	andeq	r0, r0, sl, lsl #2
     220:	00280002 	eoreq	r0, r8, r2
     224:	01040000 	mrseq	r0, (UNDEF: 4)
     228:	0000017a 	andeq	r0, r0, sl, ror r1
     22c:	000003c0 	andeq	r0, r0, r0, asr #7
     230:	000003c4 	andeq	r0, r0, r4, asr #7
     234:	6d6f682f 	stclvs	8, cr6, [pc, #-188]!	; 180 <rumboot_entry_point+0xb4>
     238:	656e2f65 	strbvs	r2, [lr, #-3941]!	; 0xfffff09b
     23c:	6d6f7263 	sfmvs	f7, 2, [pc, #-396]!	; b8 <fiq_handler+0x8>
     240:	2f746e61 	svccs	0x00746e61
     244:	74666f53 	strbtvc	r6, [r6], #-3923	; 0xfffff0ad
     248:	65726177 	ldrbvs	r6, [r2, #-375]!	; 0xfffffe89
     24c:	6f6f742f 	svcvs	0x006f742f
     250:	6168636c 	cmnvs	r8, ip, ror #6
     254:	2f736e69 	svccs	0x00736e69
     258:	74726f63 	ldrbtvc	r6, [r2], #-3939	; 0xfffff09d
     25c:	612d7865 			; <UNDEFINED> instruction: 0x612d7865
     260:	61622d35 	cmnvs	r2, r5, lsr sp
     264:	656d6572 	strbvs	r6, [sp, #-1394]!	; 0xfffffa8e
     268:	2f6c6174 	svccs	0x006c6174
     26c:	6975622e 	ldmdbvs	r5!, {r1, r2, r3, r5, r9, sp, lr}^
     270:	732f646c 			; <UNDEFINED> instruction: 0x732f646c
     274:	672f6372 			; <UNDEFINED> instruction: 0x672f6372
     278:	362d6363 	strtcc	r6, [sp], -r3, ror #6
     27c:	302e332e 	eorcc	r3, lr, lr, lsr #6
     280:	62696c2f 	rsbvs	r6, r9, #12032	; 0x2f00
     284:	2f636367 	svccs	0x00636367
     288:	666e6f63 	strbtvs	r6, [lr], -r3, ror #30
     28c:	612f6769 			; <UNDEFINED> instruction: 0x612f6769
     290:	6c2f6d72 	stcvs	13, cr6, [pc], #-456	; d0 <rumboot_entry_point+0x4>
     294:	66316269 	ldrtvs	r6, [r1], -r9, ror #4
     298:	73636e75 	cmnvc	r3, #1872	; 0x750
     29c:	2f00532e 	svccs	0x0000532e
     2a0:	656d6f68 	strbvs	r6, [sp, #-3944]!	; 0xfffff098
     2a4:	63656e2f 	cmnvs	r5, #752	; 0x2f0
     2a8:	616d6f72 	smcvs	55026	; 0xd6f2
     2ac:	532f746e 			; <UNDEFINED> instruction: 0x532f746e
     2b0:	7774666f 	ldrbvc	r6, [r4, -pc, ror #12]!
     2b4:	2f657261 	svccs	0x00657261
     2b8:	6c6f6f74 	stclvs	15, cr6, [pc], #-464	; f0 <rumboot_entry_point+0x24>
     2bc:	69616863 	stmdbvs	r1!, {r0, r1, r5, r6, fp, sp, lr}^
     2c0:	632f736e 			; <UNDEFINED> instruction: 0x632f736e
     2c4:	6574726f 	ldrbvs	r7, [r4, #-623]!	; 0xfffffd91
     2c8:	35612d78 	strbcc	r2, [r1, #-3448]!	; 0xfffff288
     2cc:	7261622d 	rsbvc	r6, r1, #-805306366	; 0xd0000002
     2d0:	74656d65 	strbtvc	r6, [r5], #-3429	; 0xfffff29b
     2d4:	2e2f6c61 	cdpcs	12, 2, cr6, cr15, cr1, {3}
     2d8:	6c697562 	cfstr64vs	mvdx7, [r9], #-392	; 0xfffffe78
     2dc:	72612f64 	rsbvc	r2, r1, #100, 30	; 0x190
     2e0:	63722d6d 	cmnvs	r2, #6976	; 0x1b40
     2e4:	61652d6d 	cmnvs	r5, sp, ror #26
     2e8:	66686962 	strbtvs	r6, [r8], -r2, ror #18
     2ec:	6975622f 	ldmdbvs	r5!, {r0, r1, r2, r3, r5, r9, sp, lr}^
     2f0:	622f646c 	eorvs	r6, pc, #108, 8	; 0x6c000000
     2f4:	646c6975 	strbtvs	r6, [ip], #-2421	; 0xfffff68b
     2f8:	2d63632d 	stclcs	3, cr6, [r3, #-180]!	; 0xffffff4c
     2fc:	2d636367 	stclcs	3, cr6, [r3, #-412]!	; 0xfffffe64
     300:	616e6966 	cmnvs	lr, r6, ror #18
     304:	72612f6c 	rsbvc	r2, r1, #108, 30	; 0x1b0
     308:	63722d6d 	cmnvs	r2, #6976	; 0x1b40
     30c:	61652d6d 	cmnvs	r5, sp, ror #26
     310:	66686962 	strbtvs	r6, [r8], -r2, ror #18
     314:	62696c2f 	rsbvs	r6, r9, #12032	; 0x2f00
     318:	00636367 	rsbeq	r6, r3, r7, ror #6
     31c:	20554e47 	subscs	r4, r5, r7, asr #28
     320:	32205341 	eorcc	r5, r0, #67108865	; 0x4000001
     324:	0038322e 	eorseq	r3, r8, lr, lsr #4
     328:	09158001 	ldmdbeq	r5, {r0, pc}
     32c:	00040000 	andeq	r0, r4, r0
     330:	0000003c 	andeq	r0, r0, ip, lsr r0
     334:	015b0104 	cmpeq	fp, r4, lsl #2
     338:	110c0000 	mrsne	r0, (UNDEF: 12)
     33c:	00000003 	andeq	r0, r0, r3
     340:	00000000 	andeq	r0, r0, r0
     344:	15000000 	strne	r0, [r0, #-0]
     348:	02000002 	andeq	r0, r0, #2
     34c:	6e690504 	cdpvs	5, 6, cr0, cr9, cr4, {0}
     350:	17030074 	smlsdxne	r3, r4, r0, r0
     354:	02000000 	andeq	r0, r0, #0
     358:	000033d8 	ldrdeq	r3, [r0], -r8
     35c:	07040400 	streq	r0, [r4, -r0, lsl #8]
     360:	00000061 	andeq	r0, r0, r1, rrx
     364:	a8050804 	stmdage	r5, {r2, fp}
     368:	04000000 	streq	r0, [r0], #-0
     36c:	02a70408 	adceq	r0, r7, #8, 8	; 0x8000000
     370:	01040000 	mrseq	r0, (UNDEF: 4)
     374:	00030006 	andeq	r0, r3, r6
     378:	08010400 	stmdaeq	r1, {sl}
     37c:	000002fe 	strdeq	r0, [r0], -lr
     380:	99050204 	stmdbls	r5, {r2, r9}
     384:	04000003 	streq	r0, [r0], #-3
     388:	022e0702 	eoreq	r0, lr, #524288	; 0x80000
     38c:	04040000 	streq	r0, [r4], #-0
     390:	0000ad05 	andeq	sl, r0, r5, lsl #26
     394:	07040400 	streq	r0, [r4, -r0, lsl #8]
     398:	0000005c 	andeq	r0, r0, ip, asr r0
     39c:	57070804 	strpl	r0, [r7, -r4, lsl #16]
     3a0:	03000000 	movweq	r0, #0
     3a4:	000002e7 	andeq	r0, r0, r7, ror #5
     3a8:	00210c03 	eoreq	r0, r1, r3, lsl #24
     3ac:	d6030000 	strle	r0, [r3], -r0
     3b0:	04000002 	streq	r0, [r0], #-2
     3b4:	0000642c 	andeq	r6, r0, ip, lsr #8
     3b8:	044d0300 	strbeq	r0, [sp], #-768	; 0xfffffd00
     3bc:	72040000 	andvc	r0, r4, #0
     3c0:	00000064 	andeq	r0, r0, r4, rrx
     3c4:	00027805 	andeq	r7, r2, r5, lsl #16
     3c8:	01650200 	cmneq	r5, r0, lsl #4
     3cc:	00000033 	andeq	r0, r0, r3, lsr r0
     3d0:	a6040406 	strge	r0, [r4], -r6, lsl #8
     3d4:	000000c5 	andeq	r0, r0, r5, asr #1
     3d8:	00026b07 	andeq	r6, r2, r7, lsl #22
     3dc:	9aa80400 	bls	fea013e4 <rumboot_platform_stack_area_end+0xfe9823e4>
     3e0:	07000000 	streq	r0, [r0, -r0]
     3e4:	0000020a 	andeq	r0, r0, sl, lsl #4
     3e8:	00c5a904 	sbceq	sl, r5, r4, lsl #18
     3ec:	08000000 	stmdaeq	r0, {}	; <UNPREDICTABLE>
     3f0:	0000004f 	andeq	r0, r0, pc, asr #32
     3f4:	000000d5 	ldrdeq	r0, [r0], -r5
     3f8:	0000d509 	andeq	sp, r0, r9, lsl #10
     3fc:	04000300 	streq	r0, [r0], #-768	; 0xfffffd00
     400:	029e0704 	addseq	r0, lr, #4, 14	; 0x100000
     404:	080a0000 	stmdaeq	sl, {}	; <UNPREDICTABLE>
     408:	00fda304 	rscseq	sl, sp, r4, lsl #6
     40c:	370b0000 	strcc	r0, [fp, -r0]
     410:	04000004 	streq	r0, [r0], #-4
     414:	000021a5 	andeq	r2, r0, r5, lsr #3
     418:	3f0b0000 	svccc	0x000b0000
     41c:	04000004 	streq	r0, [r0], #-4
     420:	0000a6aa 	andeq	sl, r0, sl, lsr #13
     424:	03000400 	movweq	r0, #1024	; 0x400
     428:	000003c1 	andeq	r0, r0, r1, asr #7
     42c:	00dcab04 	sbcseq	sl, ip, r4, lsl #22
     430:	4a030000 	bmi	c0438 <rumboot_platform_stack_area_end+0x41438>
     434:	04000001 	streq	r0, [r0], #-1
     438:	000079af 	andeq	r7, r0, pc, lsr #19
     43c:	0d040c00 	stceq	12, cr0, [r4, #-0]
     440:	00000113 	andeq	r0, r0, r3, lsl r1
     444:	0120040e 			; <UNDEFINED> instruction: 0x0120040e
     448:	01040000 	mrseq	r0, (UNDEF: 4)
     44c:	00030708 	andeq	r0, r3, r8, lsl #14
     450:	01200f00 			; <UNDEFINED> instruction: 0x01200f00
     454:	7f030000 	svcvc	0x00030000
     458:	05000004 	streq	r0, [r0, #-4]
     45c:	00006b16 	andeq	r6, r0, r6, lsl fp
     460:	04e11000 	strbteq	r1, [r1], #0
     464:	05180000 	ldreq	r0, [r8, #-0]
     468:	00018a2f 	andeq	r8, r1, pc, lsr #20
     46c:	03e20b00 	mvneq	r0, #0, 22
     470:	31050000 	mrscc	r0, (UNDEF: 5)
     474:	0000018a 	andeq	r0, r0, sl, lsl #3
     478:	6b5f1100 	blvs	17c4880 <rumboot_platform_stack_area_end+0x1745880>
     47c:	21320500 	teqcs	r2, r0, lsl #10
     480:	04000000 	streq	r0, [r0], #-0
     484:	0004220b 	andeq	r2, r4, fp, lsl #4
     488:	21320500 	teqcs	r2, r0, lsl #10
     48c:	08000000 	stmdaeq	r0, {}	; <UNPREDICTABLE>
     490:	0006910b 	andeq	r9, r6, fp, lsl #2
     494:	21320500 	teqcs	r2, r0, lsl #10
     498:	0c000000 	stceq	0, cr0, [r0], {-0}
     49c:	0004b40b 	andeq	fp, r4, fp, lsl #8
     4a0:	21320500 	teqcs	r2, r0, lsl #10
     4a4:	10000000 	andne	r0, r0, r0
     4a8:	00785f11 	rsbseq	r5, r8, r1, lsl pc
     4ac:	01903305 	orrseq	r3, r0, r5, lsl #6
     4b0:	00140000 	andseq	r0, r4, r0
     4b4:	0137040e 	teqeq	r7, lr, lsl #8
     4b8:	2c080000 	stccs	0, cr0, [r8], {-0}
     4bc:	a0000001 	andge	r0, r0, r1
     4c0:	09000001 	stmdbeq	r0, {r0}
     4c4:	000000d5 	ldrdeq	r0, [r0], -r5
     4c8:	05100000 	ldreq	r0, [r0, #-0]
     4cc:	24000002 	strcs	r0, [r0], #-2
     4d0:	02193705 	andseq	r3, r9, #1310720	; 0x140000
     4d4:	9f0b0000 	svcls	0x000b0000
     4d8:	05000000 	streq	r0, [r0, #-0]
     4dc:	00002139 	andeq	r2, r0, r9, lsr r1
     4e0:	550b0000 	strpl	r0, [fp, #-0]
     4e4:	05000004 	streq	r0, [r0, #-4]
     4e8:	0000213a 	andeq	r2, r0, sl, lsr r1
     4ec:	c20b0400 	andgt	r0, fp, #0, 8
     4f0:	05000000 	streq	r0, [r0, #-0]
     4f4:	0000213b 	andeq	r2, r0, fp, lsr r1
     4f8:	3a0b0800 	bcc	2c2500 <rumboot_platform_stack_area_end+0x243500>
     4fc:	05000005 	streq	r0, [r0, #-5]
     500:	0000213c 	andeq	r2, r0, ip, lsr r1
     504:	ba0b0c00 	blt	2c350c <rumboot_platform_stack_area_end+0x24450c>
     508:	05000002 	streq	r0, [r0, #-2]
     50c:	0000213d 	andeq	r2, r0, sp, lsr r1
     510:	940b1000 	strls	r1, [fp], #-0
     514:	05000002 	streq	r0, [r0, #-2]
     518:	0000213e 	andeq	r2, r0, lr, lsr r1
     51c:	b90b1400 	stmdblt	fp, {sl, ip}
     520:	05000004 	streq	r0, [r0, #-4]
     524:	0000213f 	andeq	r2, r0, pc, lsr r1
     528:	a30b1800 	movwge	r1, #47104	; 0xb800
     52c:	05000003 	streq	r0, [r0, #-3]
     530:	00002140 	andeq	r2, r0, r0, asr #2
     534:	010b1c00 	tsteq	fp, r0, lsl #24
     538:	05000005 	streq	r0, [r0, #-5]
     53c:	00002141 	andeq	r2, r0, r1, asr #2
     540:	12002000 	andne	r2, r0, #0
     544:	000000d1 	ldrdeq	r0, [r0], -r1
     548:	4a050108 	bmi	140970 <rumboot_platform_stack_area_end+0xc1970>
     54c:	00000259 	andeq	r0, r0, r9, asr r2
     550:	00013d0b 	andeq	r3, r1, fp, lsl #26
     554:	594b0500 	stmdbpl	fp, {r8, sl}^
     558:	00000002 	andeq	r0, r0, r2
     55c:	0000000b 	andeq	r0, r0, fp
     560:	594c0500 	stmdbpl	ip, {r8, sl}^
     564:	80000002 	andhi	r0, r0, r2
     568:	00047113 	andeq	r7, r4, r3, lsl r1
     56c:	2c4e0500 	cfstr64cs	mvdx0, [lr], {-0}
     570:	00000001 	andeq	r0, r0, r1
     574:	00f61301 	rscseq	r1, r6, r1, lsl #6
     578:	51050000 	mrspl	r0, (UNDEF: 5)
     57c:	0000012c 	andeq	r0, r0, ip, lsr #2
     580:	08000104 	stmdaeq	r0, {r2, r8}
     584:	00000113 	andeq	r0, r0, r3, lsl r1
     588:	00000269 	andeq	r0, r0, r9, ror #4
     58c:	0000d509 	andeq	sp, r0, r9, lsl #10
     590:	12001f00 	andne	r1, r0, #0, 30
     594:	000002c3 	andeq	r0, r0, r3, asr #5
     598:	5d050190 	stfpls	f0, [r5, #-576]	; 0xfffffdc0
     59c:	000002a7 	andeq	r0, r0, r7, lsr #5
     5a0:	0003e20b 	andeq	lr, r3, fp, lsl #4
     5a4:	a75e0500 	ldrbge	r0, [lr, -r0, lsl #10]
     5a8:	00000002 	andeq	r0, r0, r2
     5ac:	0003fa0b 	andeq	pc, r3, fp, lsl #20
     5b0:	215f0500 	cmpcs	pc, r0, lsl #10
     5b4:	04000000 	streq	r0, [r0], #-0
     5b8:	0001450b 	andeq	r4, r1, fp, lsl #10
     5bc:	ad610500 	cfstr64ge	mvdx0, [r1, #-0]
     5c0:	08000002 	stmdaeq	r0, {r1}
     5c4:	0000d10b 	andeq	sp, r0, fp, lsl #2
     5c8:	19620500 	stmdbne	r2!, {r8, sl}^
     5cc:	88000002 	stmdahi	r0, {r1}
     5d0:	69040e00 	stmdbvs	r4, {r9, sl, fp}
     5d4:	08000002 	stmdaeq	r0, {r1}
     5d8:	000002bd 			; <UNDEFINED> instruction: 0x000002bd
     5dc:	000002bd 			; <UNDEFINED> instruction: 0x000002bd
     5e0:	0000d509 	andeq	sp, r0, r9, lsl #10
     5e4:	0e001f00 	cdpeq	15, 0, cr1, cr0, cr0, {0}
     5e8:	0002c304 	andeq	ip, r2, r4, lsl #6
     5ec:	ad101400 	cfldrsge	mvf1, [r0, #-0]
     5f0:	08000003 	stmdaeq	r0, {r0, r1}
     5f4:	02e97505 	rsceq	r7, r9, #20971520	; 0x1400000
     5f8:	bc0b0000 	stclt	0, cr0, [fp], {-0}
     5fc:	05000000 	streq	r0, [r0, #-0]
     600:	0002e976 	andeq	lr, r2, r6, ror r9
     604:	0c0b0000 	stceq	0, cr0, [fp], {-0}
     608:	05000000 	streq	r0, [r0, #-0]
     60c:	00002177 	andeq	r2, r0, r7, ror r1
     610:	0e000400 	cfcpyseq	mvf0, mvf0
     614:	00004f04 	andeq	r4, r0, r4, lsl #30
     618:	03cc1000 	biceq	r1, ip, #0
     61c:	05680000 	strbeq	r0, [r8, #-0]!
     620:	000419b5 			; <UNDEFINED> instruction: 0x000419b5
     624:	705f1100 	subsvc	r1, pc, r0, lsl #2
     628:	e9b60500 	ldmib	r6!, {r8, sl}
     62c:	00000002 	andeq	r0, r0, r2
     630:	00725f11 	rsbseq	r5, r2, r1, lsl pc
     634:	0021b705 	eoreq	fp, r1, r5, lsl #14
     638:	11040000 	mrsne	r0, (UNDEF: 4)
     63c:	0500775f 	streq	r7, [r0, #-1887]	; 0xfffff8a1
     640:	000021b8 			; <UNDEFINED> instruction: 0x000021b8
     644:	ef0b0800 	svc	0x000b0800
     648:	05000000 	streq	r0, [r0, #-0]
     64c:	000056b9 			; <UNDEFINED> instruction: 0x000056b9
     650:	210b0c00 	tstcs	fp, r0, lsl #24
     654:	05000002 	streq	r0, [r0, #-2]
     658:	000056ba 			; <UNDEFINED> instruction: 0x000056ba
     65c:	5f110e00 	svcpl	0x00110e00
     660:	05006662 	streq	r6, [r0, #-1634]	; 0xfffff99e
     664:	0002c4bb 			; <UNDEFINED> instruction: 0x0002c4bb
     668:	6e0b1000 	cdpvs	0, 0, cr1, cr11, cr0, {0}
     66c:	05000000 	streq	r0, [r0, #-0]
     670:	000021bc 			; <UNDEFINED> instruction: 0x000021bc
     674:	df0b1800 	svcle	0x000b1800
     678:	05000000 	streq	r0, [r0, #-0]
     67c:	000113c3 	andeq	r1, r1, r3, asr #7
     680:	f50b1c00 			; <UNDEFINED> instruction: 0xf50b1c00
     684:	05000001 	streq	r0, [r0, #-1]
     688:	000574c5 	andeq	r7, r5, r5, asr #9
     68c:	8d0b2000 	stchi	0, cr2, [fp, #-0]
     690:	05000002 	streq	r0, [r0, #-2]
     694:	00059ec7 	andeq	r9, r5, r7, asr #29
     698:	470b2400 	strmi	r2, [fp, -r0, lsl #8]
     69c:	05000004 	streq	r0, [r0, #-4]
     6a0:	0005c2ca 	andeq	ip, r5, sl, asr #5
     6a4:	1b0b2800 	blne	2ca6ac <rumboot_platform_stack_area_end+0x24b6ac>
     6a8:	05000005 	streq	r0, [r0, #-5]
     6ac:	0005dccb 	andeq	sp, r5, fp, asr #25
     6b0:	5f112c00 	svcpl	0x00112c00
     6b4:	05006275 	streq	r6, [r0, #-629]	; 0xfffffd8b
     6b8:	0002c4ce 	andeq	ip, r2, lr, asr #9
     6bc:	5f113000 	svcpl	0x00113000
     6c0:	05007075 	streq	r7, [r0, #-117]	; 0xffffff8b
     6c4:	0002e9cf 	andeq	lr, r2, pc, asr #19
     6c8:	5f113800 	svcpl	0x00113800
     6cc:	05007275 	streq	r7, [r0, #-629]	; 0xfffffd8b
     6d0:	000021d0 	ldrdeq	r2, [r0], -r0
     6d4:	b60b3c00 	strlt	r3, [fp], -r0, lsl #24
     6d8:	05000000 	streq	r0, [r0, #-0]
     6dc:	0005e2d3 	ldrdeq	lr, [r5], -r3
     6e0:	f30b4000 	vhadd.u8	d4, d11, d0
     6e4:	05000004 	streq	r0, [r0, #-4]
     6e8:	0005f2d4 	ldrdeq	pc, [r5], -r4
     6ec:	5f114300 	svcpl	0x00114300
     6f0:	0500626c 	streq	r6, [r0, #-620]	; 0xfffffd94
     6f4:	0002c4d7 	ldrdeq	ip, [r2], -r7
     6f8:	050b4400 	streq	r4, [fp, #-1024]	; 0xfffffc00
     6fc:	05000001 	streq	r0, [r0, #-1]
     700:	000021da 	ldrdeq	r2, [r0], -sl
     704:	160b4c00 	strne	r4, [fp], -r0, lsl #24
     708:	05000001 	streq	r0, [r0, #-1]
     70c:	000084db 	ldrdeq	r8, [r0], -fp
     710:	310b5000 	mrscc	r5, (UNDEF: 11)
     714:	05000000 	streq	r0, [r0, #-0]
     718:	000437de 	ldrdeq	r3, [r4], -lr
     71c:	7f0b5400 	svcvc	0x000b5400
     720:	05000002 	streq	r0, [r0, #-2]
     724:	000108e2 	andeq	r0, r1, r2, ror #17
     728:	d40b5800 	strle	r5, [fp], #-2048	; 0xfffff800
     72c:	05000003 	streq	r0, [r0, #-3]
     730:	0000fde4 	andeq	pc, r0, r4, ror #27
     734:	850b5c00 	strhi	r5, [fp, #-3072]	; 0xfffff400
     738:	05000002 	streq	r0, [r0, #-2]
     73c:	000021e5 	andeq	r2, r0, r5, ror #3
     740:	15006400 	strne	r6, [r0, #-1024]	; 0xfffffc00
     744:	00000021 	andeq	r0, r0, r1, lsr #32
     748:	00000437 	andeq	r0, r0, r7, lsr r4
     74c:	00043716 	andeq	r3, r4, r6, lsl r7
     750:	01131600 	tsteq	r3, r0, lsl #12
     754:	1a160000 	bne	58075c <rumboot_platform_stack_area_end+0x50175c>
     758:	16000001 	strne	r0, [r0], -r1
     75c:	00000021 	andeq	r0, r0, r1, lsr #32
     760:	42040e00 	andmi	r0, r4, #0, 28
     764:	0f000004 	svceq	0x00000004
     768:	00000437 	andeq	r0, r0, r7, lsr r4
     76c:	00042a17 	andeq	r2, r4, r7, lsl sl
     770:	05042800 	streq	r2, [r4, #-2048]	; 0xfffff800
     774:	05740239 	ldrbeq	r0, [r4, #-569]!	; 0xfffffdc7
     778:	92180000 	andsls	r0, r8, #0
     77c:	05000003 	streq	r0, [r0, #-3]
     780:	0021023b 	eoreq	r0, r1, fp, lsr r2
     784:	18000000 	stmdane	r0, {}	; <UNPREDICTABLE>
     788:	000000fe 	strdeq	r0, [r0], -lr
     78c:	49024005 	stmdbmi	r2, {r0, r2, lr}
     790:	04000006 	streq	r0, [r0], #-6
     794:	00021118 	andeq	r1, r2, r8, lsl r1
     798:	02400500 	subeq	r0, r0, #0, 10
     79c:	00000649 	andeq	r0, r0, r9, asr #12
     7a0:	01531808 	cmpeq	r3, r8, lsl #16
     7a4:	40050000 	andmi	r0, r5, r0
     7a8:	00064902 	andeq	r4, r6, r2, lsl #18
     7ac:	f5180c00 			; <UNDEFINED> instruction: 0xf5180c00
     7b0:	05000003 	streq	r0, [r0, #-3]
     7b4:	00210242 	eoreq	r0, r1, r2, asr #4
     7b8:	18100000 	ldmdane	r0, {}	; <UNPREDICTABLE>
     7bc:	00000026 	andeq	r0, r0, r6, lsr #32
     7c0:	2b024305 	blcs	913dc <rumboot_platform_stack_area_end+0x123dc>
     7c4:	14000008 	strne	r0, [r0], #-8
     7c8:	00040918 	andeq	r0, r4, r8, lsl r9
     7cc:	02460500 	subeq	r0, r6, #0, 10
     7d0:	00000021 	andeq	r0, r0, r1, lsr #32
     7d4:	054e1830 	strbeq	r1, [lr, #-2096]	; 0xfffff7d0
     7d8:	47050000 	strmi	r0, [r5, -r0]
     7dc:	00084002 	andeq	r4, r8, r2
     7e0:	cb183400 	blgt	60d7e8 <rumboot_platform_stack_area_end+0x58e7e8>
     7e4:	05000002 	streq	r0, [r0, #-2]
     7e8:	00210249 	eoreq	r0, r1, r9, asr #4
     7ec:	18380000 	ldmdane	r8!, {}	; <UNPREDICTABLE>
     7f0:	000003ff 	strdeq	r0, [r0], -pc	; <UNPREDICTABLE>
     7f4:	51024b05 	tstpl	r2, r5, lsl #22
     7f8:	3c000008 	stccc	0, cr0, [r0], {8}
     7fc:	00026318 	andeq	r6, r2, r8, lsl r3
     800:	024e0500 	subeq	r0, lr, #0, 10
     804:	0000018a 	andeq	r0, r0, sl, lsl #3
     808:	01fb1840 	mvnseq	r1, r0, asr #16
     80c:	4f050000 	svcmi	0x00050000
     810:	00002102 	andeq	r2, r0, r2, lsl #2
     814:	35184400 	ldrcc	r4, [r8, #-1024]	; 0xfffffc00
     818:	05000005 	streq	r0, [r0, #-5]
     81c:	018a0250 	orreq	r0, sl, r0, asr r2
     820:	18480000 	stmdane	r8, {}^	; <UNPREDICTABLE>
     824:	000002dd 	ldrdeq	r0, [r0], -sp
     828:	57025105 	strpl	r5, [r2, -r5, lsl #2]
     82c:	4c000008 	stcmi	0, cr0, [r0], {8}
     830:	00021918 	andeq	r1, r2, r8, lsl r9
     834:	02540500 	subseq	r0, r4, #0, 10
     838:	00000021 	andeq	r0, r0, r1, lsr #32
     83c:	010e1850 	tsteq	lr, r0, asr r8
     840:	55050000 	strpl	r0, [r5, #-0]
     844:	00011a02 	andeq	r1, r1, r2, lsl #20
     848:	0c185400 	cfldrseq	mvf5, [r8], {-0}
     84c:	05000003 	streq	r0, [r0, #-3]
     850:	08090278 	stmdaeq	r9, {r3, r4, r5, r6, r9}
     854:	19580000 	ldmdbne	r8, {}^	; <UNPREDICTABLE>
     858:	000002c3 	andeq	r0, r0, r3, asr #5
     85c:	a7027c05 	strge	r7, [r2, -r5, lsl #24]
     860:	48000002 	stmdami	r0, {r1}
     864:	02411901 	subeq	r1, r1, #16384	; 0x4000
     868:	7d050000 	stcvc	0, cr0, [r5, #-0]
     86c:	00026902 	andeq	r6, r2, r2, lsl #18
     870:	19014c00 	stmdbne	r1, {sl, fp, lr}
     874:	000004e9 	andeq	r0, r0, r9, ror #9
     878:	68028105 	stmdavs	r2, {r0, r2, r8, pc}
     87c:	dc000008 	stcle	0, cr0, [r0], {8}
     880:	00e71902 	rsceq	r1, r7, r2, lsl #18
     884:	86050000 	strhi	r0, [r5], -r0
     888:	00060e02 	andeq	r0, r6, r2, lsl #28
     88c:	1902e000 	stmdbne	r2, {sp, lr, pc}
     890:	000000cc 	andeq	r0, r0, ip, asr #1
     894:	74028705 	strvc	r8, [r2], #-1797	; 0xfffff8fb
     898:	ec000008 	stc	0, cr0, [r0], {8}
     89c:	040e0002 	streq	r0, [lr], #-2
     8a0:	00000419 	andeq	r0, r0, r9, lsl r4
     8a4:	00002115 	andeq	r2, r0, r5, lsl r1
     8a8:	00059800 	andeq	r9, r5, r0, lsl #16
     8ac:	04371600 	ldrteq	r1, [r7], #-1536	; 0xfffffa00
     8b0:	13160000 	tstne	r6, #0
     8b4:	16000001 	strne	r0, [r0], -r1
     8b8:	00000598 	muleq	r0, r8, r5
     8bc:	00002116 	andeq	r2, r0, r6, lsl r1
     8c0:	040e0000 	streq	r0, [lr], #-0
     8c4:	00000127 	andeq	r0, r0, r7, lsr #2
     8c8:	057a040e 	ldrbeq	r0, [sl, #-1038]!	; 0xfffffbf2
     8cc:	8f150000 	svchi	0x00150000
     8d0:	c2000000 	andgt	r0, r0, #0
     8d4:	16000005 	strne	r0, [r0], -r5
     8d8:	00000437 	andeq	r0, r0, r7, lsr r4
     8dc:	00011316 	andeq	r1, r1, r6, lsl r3
     8e0:	008f1600 	addeq	r1, pc, r0, lsl #12
     8e4:	21160000 	tstcs	r6, r0
     8e8:	00000000 	andeq	r0, r0, r0
     8ec:	05a4040e 	streq	r0, [r4, #1038]!	; 0x40e
     8f0:	21150000 	tstcs	r5, r0
     8f4:	dc000000 	stcle	0, cr0, [r0], {-0}
     8f8:	16000005 	strne	r0, [r0], -r5
     8fc:	00000437 	andeq	r0, r0, r7, lsr r4
     900:	00011316 	andeq	r1, r1, r6, lsl r3
     904:	040e0000 	streq	r0, [lr], #-0
     908:	000005c8 	andeq	r0, r0, r8, asr #11
     90c:	00004f08 	andeq	r4, r0, r8, lsl #30
     910:	0005f200 	andeq	pc, r5, r0, lsl #4
     914:	00d50900 	sbcseq	r0, r5, r0, lsl #18
     918:	00020000 	andeq	r0, r2, r0
     91c:	00004f08 	andeq	r4, r0, r8, lsl #30
     920:	00060200 	andeq	r0, r6, r0, lsl #4
     924:	00d50900 	sbcseq	r0, r5, r0, lsl #18
     928:	00000000 	andeq	r0, r0, r0
     92c:	0003ba05 	andeq	fp, r3, r5, lsl #20
     930:	011f0500 	tsteq	pc, r0, lsl #10
     934:	000002ef 	andeq	r0, r0, pc, ror #5
     938:	0004c31a 	andeq	ip, r4, sl, lsl r3
     93c:	23050c00 	movwcs	r0, #23552	; 0x5c00
     940:	00064301 	andeq	r4, r6, r1, lsl #6
     944:	03e21800 	mvneq	r1, #0, 16
     948:	25050000 	strcs	r0, [r5, #-0]
     94c:	00064301 	andeq	r4, r6, r1, lsl #6
     950:	27180000 	ldrcs	r0, [r8, -r0]
     954:	05000002 	streq	r0, [r0, #-2]
     958:	00210126 	eoreq	r0, r1, r6, lsr #2
     95c:	18040000 	stmdane	r4, {}	; <UNPREDICTABLE>
     960:	000003b4 			; <UNDEFINED> instruction: 0x000003b4
     964:	49012705 	stmdbmi	r1, {r0, r2, r8, r9, sl, sp}
     968:	08000006 	stmdaeq	r0, {r1, r2}
     96c:	0e040e00 	cdpeq	14, 0, cr0, cr4, cr0, {0}
     970:	0e000006 	cdpeq	0, 0, cr0, cr0, cr6, {0}
     974:	00060204 	andeq	r0, r6, r4, lsl #4
     978:	001e1a00 	andseq	r1, lr, r0, lsl #20
     97c:	050e0000 	streq	r0, [lr, #-0]
     980:	0684013f 			; <UNDEFINED> instruction: 0x0684013f
     984:	31180000 	tstcc	r8, r0
     988:	05000004 	streq	r0, [r0, #-4]
     98c:	06840140 	streq	r0, [r4], r0, asr #2
     990:	18000000 	stmdane	r0, {}	; <UNPREDICTABLE>
     994:	0000045e 	andeq	r0, r0, lr, asr r4
     998:	84014105 	strhi	r4, [r1], #-261	; 0xfffffefb
     99c:	06000006 	streq	r0, [r0], -r6
     9a0:	00047a18 	andeq	r7, r4, r8, lsl sl
     9a4:	01420500 	cmpeq	r2, r0, lsl #10
     9a8:	0000005d 	andeq	r0, r0, sp, asr r0
     9ac:	5d08000c 	stcpl	0, cr0, [r8, #-48]	; 0xffffffd0
     9b0:	94000000 	strls	r0, [r0], #-0
     9b4:	09000006 	stmdbeq	r0, {r1, r2}
     9b8:	000000d5 	ldrdeq	r0, [r0], -r5
     9bc:	d01b0002 	andsle	r0, fp, r2
     9c0:	95025905 	strls	r5, [r2, #-2309]	; 0xfffff6fb
     9c4:	18000007 	stmdane	r0, {r0, r1, r2}
     9c8:	000004a7 	andeq	r0, r0, r7, lsr #9
     9cc:	33025b05 	movwcc	r5, #11013	; 0x2b05
     9d0:	00000000 	andeq	r0, r0, r0
     9d4:	00046418 	andeq	r6, r4, r8, lsl r4
     9d8:	025c0500 	subseq	r0, ip, #0, 10
     9dc:	0000011a 	andeq	r0, r0, sl, lsl r1
     9e0:	02561804 	subseq	r1, r6, #4, 16	; 0x40000
     9e4:	5d050000 	stcpl	0, cr0, [r5, #-0]
     9e8:	00079502 	andeq	r9, r7, r2, lsl #10
     9ec:	0c180800 	ldceq	8, cr0, [r8], {-0}
     9f0:	05000005 	streq	r0, [r0, #-5]
     9f4:	01a0025e 	asreq	r0, lr, r2
     9f8:	18240000 	stmdane	r4!, {}	; <UNPREDICTABLE>
     9fc:	000001e1 	andeq	r0, r0, r1, ror #3
     a00:	21025f05 	tstcs	r2, r5, lsl #30
     a04:	48000000 	stmdami	r0, {}	; <UNPREDICTABLE>
     a08:	0003dd18 	andeq	sp, r3, r8, lsl sp
     a0c:	02600500 	rsbeq	r0, r0, #0, 10
     a10:	00000072 	andeq	r0, r0, r2, ror r0
     a14:	05221850 	streq	r1, [r2, #-2128]!	; 0xfffff7b0
     a18:	61050000 	mrsvs	r0, (UNDEF: 5)
     a1c:	00064f02 	andeq	r4, r6, r2, lsl #30
     a20:	e8185800 	ldmda	r8, {fp, ip, lr}
     a24:	05000003 	streq	r0, [r0, #-3]
     a28:	00fd0262 	rscseq	r0, sp, r2, ror #4
     a2c:	18680000 	stmdane	r8!, {}^	; <UNPREDICTABLE>
     a30:	00000527 	andeq	r0, r0, r7, lsr #10
     a34:	fd026305 	stc2	3, cr6, [r2, #-20]	; 0xffffffec
     a38:	70000000 	andvc	r0, r0, r0
     a3c:	00009118 	andeq	r9, r0, r8, lsl r1
     a40:	02640500 	rsbeq	r0, r4, #0, 10
     a44:	000000fd 	strdeq	r0, [r0], -sp
     a48:	04d71878 	ldrbeq	r1, [r7], #2168	; 0x878
     a4c:	65050000 	strvs	r0, [r5, #-0]
     a50:	0007a502 	andeq	sl, r7, r2, lsl #10
     a54:	4a188000 	bmi	620a5c <rumboot_platform_stack_area_end+0x5a1a5c>
     a58:	05000002 	streq	r0, [r0, #-2]
     a5c:	07b50266 	ldreq	r0, [r5, r6, ror #4]!
     a60:	18880000 	stmne	r8, {}	; <UNPREDICTABLE>
     a64:	00000487 	andeq	r0, r0, r7, lsl #9
     a68:	21026705 	tstcs	r2, r5, lsl #14
     a6c:	a0000000 	andge	r0, r0, r0
     a70:	00012f18 	andeq	r2, r1, r8, lsl pc
     a74:	02680500 	rsbeq	r0, r8, #0, 10
     a78:	000000fd 	strdeq	r0, [r0], -sp
     a7c:	008218a4 	addeq	r1, r2, r4, lsr #17
     a80:	69050000 	stmdbvs	r5, {}	; <UNPREDICTABLE>
     a84:	0000fd02 	andeq	pc, r0, r2, lsl #26
     a88:	1e18ac00 	cdpne	12, 1, cr10, cr8, cr0, {0}
     a8c:	05000001 	streq	r0, [r0, #-1]
     a90:	00fd026a 	rscseq	r0, sp, sl, ror #4
     a94:	18b40000 	ldmne	r4!, {}	; <UNPREDICTABLE>
     a98:	00000037 	andeq	r0, r0, r7, lsr r0
     a9c:	fd026b05 	stc2	11, cr6, [r2, #-20]	; 0xffffffec	; <UNPREDICTABLE>
     aa0:	bc000000 	stclt	0, cr0, [r0], {-0}
     aa4:	00004618 	andeq	r4, r0, r8, lsl r6
     aa8:	026c0500 	rsbeq	r0, ip, #0, 10
     aac:	000000fd 	strdeq	r0, [r0], -sp
     ab0:	039018c4 	orrseq	r1, r0, #196, 16	; 0xc40000
     ab4:	6d050000 	stcvs	0, cr0, [r5, #-0]
     ab8:	00002102 	andeq	r2, r0, r2, lsl #2
     abc:	0800cc00 	stmdaeq	r0, {sl, fp, lr, pc}
     ac0:	00000120 	andeq	r0, r0, r0, lsr #2
     ac4:	000007a5 	andeq	r0, r0, r5, lsr #15
     ac8:	0000d509 	andeq	sp, r0, r9, lsl #10
     acc:	08001900 	stmdaeq	r0, {r8, fp, ip}
     ad0:	00000120 	andeq	r0, r0, r0, lsr #2
     ad4:	000007b5 			; <UNDEFINED> instruction: 0x000007b5
     ad8:	0000d509 	andeq	sp, r0, r9, lsl #10
     adc:	08000700 	stmdaeq	r0, {r8, r9, sl}
     ae0:	00000120 	andeq	r0, r0, r0, lsr #2
     ae4:	000007c5 	andeq	r0, r0, r5, asr #15
     ae8:	0000d509 	andeq	sp, r0, r9, lsl #10
     aec:	1b001700 	blne	66f4 <__init_array_end+0x1522>
     af0:	027205f0 	rsbseq	r0, r2, #240, 10	; 0x3c000000
     af4:	000007e9 	andeq	r0, r0, r9, ror #15
     af8:	0002b318 	andeq	fp, r2, r8, lsl r3
     afc:	02750500 	rsbseq	r0, r5, #0, 10
     b00:	000007e9 	andeq	r0, r0, r9, ror #15
     b04:	04ce1800 	strbeq	r1, [lr], #2048	; 0x800
     b08:	76050000 	strvc	r0, [r5], -r0
     b0c:	0007f902 	andeq	pc, r7, r2, lsl #18
     b10:	08007800 	stmdaeq	r0, {fp, ip, sp, lr}
     b14:	000002e9 	andeq	r0, r0, r9, ror #5
     b18:	000007f9 	strdeq	r0, [r0], -r9
     b1c:	0000d509 	andeq	sp, r0, r9, lsl #10
     b20:	08001d00 	stmdaeq	r0, {r8, sl, fp, ip}
     b24:	00000033 	andeq	r0, r0, r3, lsr r0
     b28:	00000809 	andeq	r0, r0, r9, lsl #16
     b2c:	0000d509 	andeq	sp, r0, r9, lsl #10
     b30:	1c001d00 	stcne	13, cr1, [r0], {-0}
     b34:	025705f0 	subseq	r0, r7, #240, 10	; 0x3c000000
     b38:	0000082b 	andeq	r0, r0, fp, lsr #16
     b3c:	00042a1d 	andeq	r2, r4, sp, lsl sl
     b40:	026e0500 	rsbeq	r0, lr, #0, 10
     b44:	00000694 	muleq	r0, r4, r6
     b48:	0004f91d 	andeq	pc, r4, sp, lsl r9	; <UNPREDICTABLE>
     b4c:	02770500 	rsbseq	r0, r7, #0, 10
     b50:	000007c5 	andeq	r0, r0, r5, asr #15
     b54:	01200800 			; <UNDEFINED> instruction: 0x01200800
     b58:	083b0000 	ldmdaeq	fp!, {}	; <UNPREDICTABLE>
     b5c:	d5090000 	strle	r0, [r9, #-0]
     b60:	18000000 	stmdane	r0, {}	; <UNPREDICTABLE>
     b64:	00771e00 	rsbseq	r1, r7, r0, lsl #28
     b68:	040e0000 	streq	r0, [lr], #-0
     b6c:	0000083b 	andeq	r0, r0, fp, lsr r8
     b70:	0008511f 	andeq	r5, r8, pc, lsl r1
     b74:	04371600 	ldrteq	r1, [r7], #-1536	; 0xfffffa00
     b78:	0e000000 	cdpeq	0, 0, cr0, cr0, cr0, {0}
     b7c:	00084604 	andeq	r4, r8, r4, lsl #12
     b80:	8a040e00 	bhi	104388 <rumboot_platform_stack_area_end+0x85388>
     b84:	1f000001 	svcne	0x00000001
     b88:	00000868 	andeq	r0, r0, r8, ror #16
     b8c:	00002116 	andeq	r2, r0, r6, lsl r1
     b90:	040e0000 	streq	r0, [lr], #-0
     b94:	0000086e 	andeq	r0, r0, lr, ror #16
     b98:	085d040e 	ldmdaeq	sp, {r1, r2, r3, sl}^
     b9c:	02080000 	andeq	r0, r8, #0
     ba0:	84000006 	strhi	r0, [r0], #-6
     ba4:	09000008 	stmdbeq	r0, {r3}
     ba8:	000000d5 	ldrdeq	r0, [r0], -r5
     bac:	9b200002 	blls	800bbc <rumboot_platform_stack_area_end+0x781bbc>
     bb0:	05000004 	streq	r0, [r0, #-4]
     bb4:	043702fe 	ldrteq	r0, [r7], #-766	; 0xfffffd02
     bb8:	94200000 	strtls	r0, [r0], #-0
     bbc:	05000004 	streq	r0, [r0, #-4]
     bc0:	043d02ff 	ldrteq	r0, [sp], #-767	; 0xfffffd01
     bc4:	71210000 			; <UNDEFINED> instruction: 0x71210000
     bc8:	06000002 	streq	r0, [r0], -r2
     bcc:	0001131b 	andeq	r1, r1, fp, lsl r3
     bd0:	0039a000 	eorseq	sl, r9, r0
     bd4:	00002000 	andeq	r2, r0, r0
     bd8:	0c9c0100 	ldfeqs	f0, [ip], {0}
     bdc:	22000009 	andcs	r0, r0, #9
     be0:	00000012 	andeq	r0, r0, r2, lsl r0
     be4:	01153601 	tsteq	r5, r1, lsl #12
     be8:	50010000 	andpl	r0, r1, r0
     bec:	0002f923 	andeq	pc, r2, r3, lsr #18
     bf0:	12360100 	eorsne	r0, r6, #0, 2
     bf4:	00000009 	andeq	r0, r0, r9
     bf8:	23000000 	movwcs	r0, #0
     bfc:	000004c9 	andeq	r0, r0, r9, asr #9
     c00:	00283601 	eoreq	r3, r8, r1, lsl #12
     c04:	00210000 	eoreq	r0, r1, r0
     c08:	64240000 	strtvs	r0, [r4], #-0
     c0c:	01007473 	tsteq	r0, r3, ror r4
     c10:	00011a3c 	andeq	r1, r1, ip, lsr sl
     c14:	00005f00 	andeq	r5, r0, r0, lsl #30
     c18:	72732400 	rsbsvc	r2, r3, #0, 8
     c1c:	3d010063 	stccc	0, cr0, [r1, #-396]	; 0xfffffe74
     c20:	0000011a 	andeq	r0, r0, sl, lsl r1
     c24:	00000072 	andeq	r0, r0, r2, ror r0
     c28:	0001f025 	andeq	pc, r1, r5, lsr #32
     c2c:	133f0100 	teqne	pc, #0, 2
     c30:	01000001 	tsteq	r0, r1
     c34:	040e0050 	streq	r0, [lr], #-80	; 0xffffffb0
     c38:	00000917 	andeq	r0, r0, r7, lsl r9
     c3c:	00090c0d 	andeq	r0, r9, sp, lsl #24
     c40:	e1002600 	tst	r0, r0, lsl #12
     c44:	0400000d 	streq	r0, [r0], #-13
     c48:	00021c00 	andeq	r1, r2, r0, lsl #24
     c4c:	5b010400 	blpl	41c54 <rumboot_platform_spl_start+0x1c54>
     c50:	0c000001 	stceq	0, cr0, [r0], {1}
     c54:	00000837 	andeq	r0, r0, r7, lsr r8
     c58:	00000784 	andeq	r0, r0, r4, lsl #15
     c5c:	00000010 	andeq	r0, r0, r0, lsl r0
     c60:	00000000 	andeq	r0, r0, r0
     c64:	00000467 	andeq	r0, r0, r7, ror #8
     c68:	69050402 	stmdbvs	r5, {r1, sl}
     c6c:	0300746e 	movweq	r7, #1134	; 0x46e
     c70:	00000017 	andeq	r0, r0, r7, lsl r0
     c74:	0037d802 	eorseq	sp, r7, r2, lsl #16
     c78:	04040000 	streq	r0, [r4], #-0
     c7c:	00006107 	andeq	r6, r0, r7, lsl #2
     c80:	06a20500 	strteq	r0, [r2], r0, lsl #10
     c84:	48020000 	stmdami	r2, {}	; <UNPREDICTABLE>
     c88:	00003701 	andeq	r3, r0, r1, lsl #14
     c8c:	05080400 	streq	r0, [r8, #-1024]	; 0xfffffc00
     c90:	000000a8 	andeq	r0, r0, r8, lsr #1
     c94:	a7040804 	strge	r0, [r4, -r4, lsl #16]
     c98:	04000002 	streq	r0, [r0], #-2
     c9c:	03000601 	movweq	r0, #1537	; 0x601
     ca0:	01040000 	mrseq	r0, (UNDEF: 4)
     ca4:	0002fe08 	andeq	pc, r2, r8, lsl #28
     ca8:	05020400 	streq	r0, [r2, #-1024]	; 0xfffffc00
     cac:	00000399 	muleq	r0, r9, r3
     cb0:	2e070204 	cdpcs	2, 0, cr0, cr7, cr4, {0}
     cb4:	04000002 	streq	r0, [r0], #-2
     cb8:	00ad0504 	adceq	r0, sp, r4, lsl #10
     cbc:	04040000 	streq	r0, [r4], #-0
     cc0:	00005c07 	andeq	r5, r0, r7, lsl #24
     cc4:	07080400 	streq	r0, [r8, -r0, lsl #8]
     cc8:	00000057 	andeq	r0, r0, r7, asr r0
     ccc:	0002e703 	andeq	lr, r2, r3, lsl #14
     cd0:	250c0300 	strcs	r0, [ip, #-768]	; 0xfffffd00
     cd4:	03000000 	movweq	r0, #0
     cd8:	000002d6 	ldrdeq	r0, [r0], -r6
     cdc:	00742c04 	rsbseq	r2, r4, r4, lsl #24
     ce0:	4d030000 	stcmi	0, cr0, [r3, #-0]
     ce4:	04000004 	streq	r0, [r0], #-4
     ce8:	00007472 	andeq	r7, r0, r2, ror r4
     cec:	02780500 	rsbseq	r0, r8, #0, 10
     cf0:	65020000 	strvs	r0, [r2, #-0]
     cf4:	00003701 	andeq	r3, r0, r1, lsl #14
     cf8:	04040600 	streq	r0, [r4], #-1536	; 0xfffffa00
     cfc:	0000d5a6 	andeq	sp, r0, r6, lsr #11
     d00:	026b0700 	rsbeq	r0, fp, #0, 14
     d04:	a8040000 	stmdage	r4, {}	; <UNPREDICTABLE>
     d08:	000000aa 	andeq	r0, r0, sl, lsr #1
     d0c:	00020a07 	andeq	r0, r2, r7, lsl #20
     d10:	d5a90400 	strle	r0, [r9, #1024]!	; 0x400
     d14:	00000000 	andeq	r0, r0, r0
     d18:	00005f08 	andeq	r5, r0, r8, lsl #30
     d1c:	0000e500 	andeq	lr, r0, r0, lsl #10
     d20:	00e50900 	rsceq	r0, r5, r0, lsl #18
     d24:	00030000 	andeq	r0, r3, r0
     d28:	9e070404 	cdpls	4, 0, cr0, cr7, cr4, {0}
     d2c:	0a000002 	beq	d3c <gic_end+0x18>
     d30:	0da30408 	cfstrseq	mvf0, [r3, #32]!
     d34:	0b000001 	bleq	d40 <gic_end+0x1c>
     d38:	00000437 	andeq	r0, r0, r7, lsr r4
     d3c:	0025a504 	eoreq	sl, r5, r4, lsl #10
     d40:	0b000000 	bleq	d48 <gic_configure>
     d44:	0000043f 	andeq	r0, r0, pc, lsr r4
     d48:	00b6aa04 	adcseq	sl, r6, r4, lsl #20
     d4c:	00040000 	andeq	r0, r4, r0
     d50:	0003c103 	andeq	ip, r3, r3, lsl #2
     d54:	ecab0400 	cfstrs	mvf0, [fp]
     d58:	03000000 	movweq	r0, #0
     d5c:	0000014a 	andeq	r0, r0, sl, asr #2
     d60:	0089af04 	addeq	sl, r9, r4, lsl #30
     d64:	040c0000 	streq	r0, [ip], #-0
     d68:	012b040d 			; <UNDEFINED> instruction: 0x012b040d
     d6c:	01040000 	mrseq	r0, (UNDEF: 4)
     d70:	00030708 	andeq	r0, r3, r8, lsl #14
     d74:	012b0e00 			; <UNDEFINED> instruction: 0x012b0e00
     d78:	7f030000 	svcvc	0x00030000
     d7c:	05000004 	streq	r0, [r0, #-4]
     d80:	00007b16 	andeq	r7, r0, r6, lsl fp
     d84:	04e10f00 	strbteq	r0, [r1], #3840	; 0xf00
     d88:	05180000 	ldreq	r0, [r8, #-0]
     d8c:	0001952f 	andeq	r9, r1, pc, lsr #10
     d90:	03e20b00 	mvneq	r0, #0, 22
     d94:	31050000 	mrscc	r0, (UNDEF: 5)
     d98:	00000195 	muleq	r0, r5, r1
     d9c:	6b5f1000 	blvs	17c4da4 <rumboot_platform_stack_area_end+0x1745da4>
     da0:	25320500 	ldrcs	r0, [r2, #-1280]!	; 0xfffffb00
     da4:	04000000 	streq	r0, [r0], #-0
     da8:	0004220b 	andeq	r2, r4, fp, lsl #4
     dac:	25320500 	ldrcs	r0, [r2, #-1280]!	; 0xfffffb00
     db0:	08000000 	stmdaeq	r0, {}	; <UNPREDICTABLE>
     db4:	0006910b 	andeq	r9, r6, fp, lsl #2
     db8:	25320500 	ldrcs	r0, [r2, #-1280]!	; 0xfffffb00
     dbc:	0c000000 	stceq	0, cr0, [r0], {-0}
     dc0:	0004b40b 	andeq	fp, r4, fp, lsl #8
     dc4:	25320500 	ldrcs	r0, [r2, #-1280]!	; 0xfffffb00
     dc8:	10000000 	andne	r0, r0, r0
     dcc:	00785f10 	rsbseq	r5, r8, r0, lsl pc
     dd0:	019b3305 	orrseq	r3, fp, r5, lsl #6
     dd4:	00140000 	andseq	r0, r4, r0
     dd8:	0142040d 	cmpeq	r2, sp, lsl #8
     ddc:	37080000 	strcc	r0, [r8, -r0]
     de0:	ab000001 	blge	dec <sp804_enable>
     de4:	09000001 	stmdbeq	r0, {r0}
     de8:	000000e5 	andeq	r0, r0, r5, ror #1
     dec:	050f0000 	streq	r0, [pc, #-0]	; df4 <sp804_enable+0x8>
     df0:	24000002 	strcs	r0, [r0], #-2
     df4:	02243705 	eoreq	r3, r4, #1310720	; 0x140000
     df8:	9f0b0000 	svcls	0x000b0000
     dfc:	05000000 	streq	r0, [r0, #-0]
     e00:	00002539 	andeq	r2, r0, r9, lsr r5
     e04:	550b0000 	strpl	r0, [fp, #-0]
     e08:	05000004 	streq	r0, [r0, #-4]
     e0c:	0000253a 	andeq	r2, r0, sl, lsr r5
     e10:	c20b0400 	andgt	r0, fp, #0, 8
     e14:	05000000 	streq	r0, [r0, #-0]
     e18:	0000253b 	andeq	r2, r0, fp, lsr r5
     e1c:	3a0b0800 	bcc	2c2e24 <rumboot_platform_stack_area_end+0x243e24>
     e20:	05000005 	streq	r0, [r0, #-5]
     e24:	0000253c 	andeq	r2, r0, ip, lsr r5
     e28:	ba0b0c00 	blt	2c3e30 <rumboot_platform_stack_area_end+0x244e30>
     e2c:	05000002 	streq	r0, [r0, #-2]
     e30:	0000253d 	andeq	r2, r0, sp, lsr r5
     e34:	940b1000 	strls	r1, [fp], #-0
     e38:	05000002 	streq	r0, [r0, #-2]
     e3c:	0000253e 	andeq	r2, r0, lr, lsr r5
     e40:	b90b1400 	stmdblt	fp, {sl, ip}
     e44:	05000004 	streq	r0, [r0, #-4]
     e48:	0000253f 	andeq	r2, r0, pc, lsr r5
     e4c:	a30b1800 	movwge	r1, #47104	; 0xb800
     e50:	05000003 	streq	r0, [r0, #-3]
     e54:	00002540 	andeq	r2, r0, r0, asr #10
     e58:	010b1c00 	tsteq	fp, r0, lsl #24
     e5c:	05000005 	streq	r0, [r0, #-5]
     e60:	00002541 	andeq	r2, r0, r1, asr #10
     e64:	11002000 	mrsne	r2, (UNDEF: 0)
     e68:	000000d1 	ldrdeq	r0, [r0], -r1
     e6c:	4a050108 	bmi	141294 <rumboot_platform_stack_area_end+0xc2294>
     e70:	00000264 	andeq	r0, r0, r4, ror #4
     e74:	00013d0b 	andeq	r3, r1, fp, lsl #26
     e78:	644b0500 	strbvs	r0, [fp], #-1280	; 0xfffffb00
     e7c:	00000002 	andeq	r0, r0, r2
     e80:	0000000b 	andeq	r0, r0, fp
     e84:	644c0500 	strbvs	r0, [ip], #-1280	; 0xfffffb00
     e88:	80000002 	andhi	r0, r0, r2
     e8c:	00047112 	andeq	r7, r4, r2, lsl r1
     e90:	374e0500 	strbcc	r0, [lr, -r0, lsl #10]
     e94:	00000001 	andeq	r0, r0, r1
     e98:	00f61201 	rscseq	r1, r6, r1, lsl #4
     e9c:	51050000 	mrspl	r0, (UNDEF: 5)
     ea0:	00000137 	andeq	r0, r0, r7, lsr r1
     ea4:	08000104 	stmdaeq	r0, {r2, r8}
     ea8:	00000123 	andeq	r0, r0, r3, lsr #2
     eac:	00000274 	andeq	r0, r0, r4, ror r2
     eb0:	0000e509 	andeq	lr, r0, r9, lsl #10
     eb4:	11001f00 	tstne	r0, r0, lsl #30
     eb8:	000002c3 	andeq	r0, r0, r3, asr #5
     ebc:	5d050190 	stfpls	f0, [r5, #-576]	; 0xfffffdc0
     ec0:	000002b2 			; <UNDEFINED> instruction: 0x000002b2
     ec4:	0003e20b 	andeq	lr, r3, fp, lsl #4
     ec8:	b25e0500 	subslt	r0, lr, #0, 10
     ecc:	00000002 	andeq	r0, r0, r2
     ed0:	0003fa0b 	andeq	pc, r3, fp, lsl #20
     ed4:	255f0500 	ldrbcs	r0, [pc, #-1280]	; 9dc <rumboot_platform_setup+0x8>
     ed8:	04000000 	streq	r0, [r0], #-0
     edc:	0001450b 	andeq	r4, r1, fp, lsl #10
     ee0:	b8610500 	stmdalt	r1!, {r8, sl}^
     ee4:	08000002 	stmdaeq	r0, {r1}
     ee8:	0000d10b 	andeq	sp, r0, fp, lsl #2
     eec:	24620500 	strbtcs	r0, [r2], #-1280	; 0xfffffb00
     ef0:	88000002 	stmdahi	r0, {r1}
     ef4:	74040d00 	strvc	r0, [r4], #-3328	; 0xfffff300
     ef8:	08000002 	stmdaeq	r0, {r1}
     efc:	000002c8 	andeq	r0, r0, r8, asr #5
     f00:	000002c8 	andeq	r0, r0, r8, asr #5
     f04:	0000e509 	andeq	lr, r0, r9, lsl #10
     f08:	0d001f00 	stceq	15, cr1, [r0, #-0]
     f0c:	0002ce04 	andeq	ip, r2, r4, lsl #28
     f10:	ad0f1300 	stcge	3, cr1, [pc, #-0]	; f18 <rumboot_putstring+0x4>
     f14:	08000003 	stmdaeq	r0, {r0, r1}
     f18:	02f47505 	rscseq	r7, r4, #20971520	; 0x1400000
     f1c:	bc0b0000 	stclt	0, cr0, [fp], {-0}
     f20:	05000000 	streq	r0, [r0, #-0]
     f24:	0002f476 	andeq	pc, r2, r6, ror r4	; <UNPREDICTABLE>
     f28:	0c0b0000 	stceq	0, cr0, [fp], {-0}
     f2c:	05000000 	streq	r0, [r0, #-0]
     f30:	00002577 	andeq	r2, r0, r7, ror r5
     f34:	0d000400 	cfstrseq	mvf0, [r0, #-0]
     f38:	00005f04 	andeq	r5, r0, r4, lsl #30
     f3c:	03cc0f00 	biceq	r0, ip, #0, 30
     f40:	05680000 	strbeq	r0, [r8, #-0]!
     f44:	000424b5 			; <UNDEFINED> instruction: 0x000424b5
     f48:	705f1000 	subsvc	r1, pc, r0
     f4c:	f4b60500 			; <UNDEFINED> instruction: 0xf4b60500
     f50:	00000002 	andeq	r0, r0, r2
     f54:	00725f10 	rsbseq	r5, r2, r0, lsl pc
     f58:	0025b705 	eoreq	fp, r5, r5, lsl #14
     f5c:	10040000 	andne	r0, r4, r0
     f60:	0500775f 	streq	r7, [r0, #-1887]	; 0xfffff8a1
     f64:	000025b8 			; <UNDEFINED> instruction: 0x000025b8
     f68:	ef0b0800 	svc	0x000b0800
     f6c:	05000000 	streq	r0, [r0, #-0]
     f70:	000066b9 			; <UNDEFINED> instruction: 0x000066b9
     f74:	210b0c00 	tstcs	fp, r0, lsl #24
     f78:	05000002 	streq	r0, [r0, #-2]
     f7c:	000066ba 			; <UNDEFINED> instruction: 0x000066ba
     f80:	5f100e00 	svcpl	0x00100e00
     f84:	05006662 	streq	r6, [r0, #-1634]	; 0xfffff99e
     f88:	0002cfbb 			; <UNDEFINED> instruction: 0x0002cfbb
     f8c:	6e0b1000 	cdpvs	0, 0, cr1, cr11, cr0, {0}
     f90:	05000000 	streq	r0, [r0, #-0]
     f94:	000025bc 			; <UNDEFINED> instruction: 0x000025bc
     f98:	df0b1800 	svcle	0x000b1800
     f9c:	05000000 	streq	r0, [r0, #-0]
     fa0:	000123c3 	andeq	r2, r1, r3, asr #7
     fa4:	f50b1c00 			; <UNDEFINED> instruction: 0xf50b1c00
     fa8:	05000001 	streq	r0, [r0, #-1]
     fac:	00057fc5 	andeq	r7, r5, r5, asr #31
     fb0:	8d0b2000 	stchi	0, cr2, [fp, #-0]
     fb4:	05000002 	streq	r0, [r0, #-2]
     fb8:	0005a9c7 	andeq	sl, r5, r7, asr #19
     fbc:	470b2400 	strmi	r2, [fp, -r0, lsl #8]
     fc0:	05000004 	streq	r0, [r0, #-4]
     fc4:	0005cdca 	andeq	ip, r5, sl, asr #27
     fc8:	1b0b2800 	blne	2cafd0 <rumboot_platform_stack_area_end+0x24bfd0>
     fcc:	05000005 	streq	r0, [r0, #-5]
     fd0:	0005e7cb 	andeq	lr, r5, fp, asr #15
     fd4:	5f102c00 	svcpl	0x00102c00
     fd8:	05006275 	streq	r6, [r0, #-629]	; 0xfffffd8b
     fdc:	0002cfce 	andeq	ip, r2, lr, asr #31
     fe0:	5f103000 	svcpl	0x00103000
     fe4:	05007075 	streq	r7, [r0, #-117]	; 0xffffff8b
     fe8:	0002f4cf 	andeq	pc, r2, pc, asr #9
     fec:	5f103800 	svcpl	0x00103800
     ff0:	05007275 	streq	r7, [r0, #-629]	; 0xfffffd8b
     ff4:	000025d0 	ldrdeq	r2, [r0], -r0
     ff8:	b60b3c00 	strlt	r3, [fp], -r0, lsl #24
     ffc:	05000000 	streq	r0, [r0, #-0]
    1000:	0005edd3 	ldrdeq	lr, [r5], -r3
    1004:	f30b4000 	vhadd.u8	d4, d11, d0
    1008:	05000004 	streq	r0, [r0, #-4]
    100c:	0005fdd4 	ldrdeq	pc, [r5], -r4
    1010:	5f104300 	svcpl	0x00104300
    1014:	0500626c 	streq	r6, [r0, #-620]	; 0xfffffd94
    1018:	0002cfd7 	ldrdeq	ip, [r2], -r7
    101c:	050b4400 	streq	r4, [fp, #-1024]	; 0xfffffc00
    1020:	05000001 	streq	r0, [r0, #-1]
    1024:	000025da 	ldrdeq	r2, [r0], -sl
    1028:	160b4c00 	strne	r4, [fp], -r0, lsl #24
    102c:	05000001 	streq	r0, [r0, #-1]
    1030:	000094db 	ldrdeq	r9, [r0], -fp
    1034:	310b5000 	mrscc	r5, (UNDEF: 11)
    1038:	05000000 	streq	r0, [r0, #-0]
    103c:	000442de 	ldrdeq	r4, [r4], -lr
    1040:	7f0b5400 	svcvc	0x000b5400
    1044:	05000002 	streq	r0, [r0, #-2]
    1048:	000118e2 	andeq	r1, r1, r2, ror #17
    104c:	d40b5800 	strle	r5, [fp], #-2048	; 0xfffff800
    1050:	05000003 	streq	r0, [r0, #-3]
    1054:	00010de4 	andeq	r0, r1, r4, ror #27
    1058:	850b5c00 	strhi	r5, [fp, #-3072]	; 0xfffff400
    105c:	05000002 	streq	r0, [r0, #-2]
    1060:	000025e5 	andeq	r2, r0, r5, ror #11
    1064:	14006400 	strne	r6, [r0], #-1024	; 0xfffffc00
    1068:	00000025 	andeq	r0, r0, r5, lsr #32
    106c:	00000442 	andeq	r0, r0, r2, asr #8
    1070:	00044215 	andeq	r4, r4, r5, lsl r2
    1074:	01231500 			; <UNDEFINED> instruction: 0x01231500
    1078:	25150000 	ldrcs	r0, [r5, #-0]
    107c:	15000001 	strne	r0, [r0, #-1]
    1080:	00000025 	andeq	r0, r0, r5, lsr #32
    1084:	4d040d00 	stcmi	13, cr0, [r4, #-0]
    1088:	0e000004 	cdpeq	0, 0, cr0, cr0, cr4, {0}
    108c:	00000442 	andeq	r0, r0, r2, asr #8
    1090:	00042a16 	andeq	r2, r4, r6, lsl sl
    1094:	05042800 	streq	r2, [r4, #-2048]	; 0xfffff800
    1098:	057f0239 	ldrbeq	r0, [pc, #-569]!	; e67 <sp804_config+0x4b>
    109c:	92170000 	andsls	r0, r7, #0
    10a0:	05000003 	streq	r0, [r0, #-3]
    10a4:	0025023b 	eoreq	r0, r5, fp, lsr r2
    10a8:	17000000 	strne	r0, [r0, -r0]
    10ac:	000000fe 	strdeq	r0, [r0], -lr
    10b0:	54024005 	strpl	r4, [r2], #-5
    10b4:	04000006 	streq	r0, [r0], #-6
    10b8:	00021117 	andeq	r1, r2, r7, lsl r1
    10bc:	02400500 	subeq	r0, r0, #0, 10
    10c0:	00000654 	andeq	r0, r0, r4, asr r6
    10c4:	01531708 	cmpeq	r3, r8, lsl #14
    10c8:	40050000 	andmi	r0, r5, r0
    10cc:	00065402 	andeq	r5, r6, r2, lsl #8
    10d0:	f5170c00 			; <UNDEFINED> instruction: 0xf5170c00
    10d4:	05000003 	streq	r0, [r0, #-3]
    10d8:	00250242 	eoreq	r0, r5, r2, asr #4
    10dc:	17100000 	ldrne	r0, [r0, -r0]
    10e0:	00000026 	andeq	r0, r0, r6, lsr #32
    10e4:	36024305 	strcc	r4, [r2], -r5, lsl #6
    10e8:	14000008 	strne	r0, [r0], #-8
    10ec:	00040917 	andeq	r0, r4, r7, lsl r9
    10f0:	02460500 	subeq	r0, r6, #0, 10
    10f4:	00000025 	andeq	r0, r0, r5, lsr #32
    10f8:	054e1730 	strbeq	r1, [lr, #-1840]	; 0xfffff8d0
    10fc:	47050000 	strmi	r0, [r5, -r0]
    1100:	0008c302 	andeq	ip, r8, r2, lsl #6
    1104:	cb173400 	blgt	5ce10c <rumboot_platform_stack_area_end+0x54f10c>
    1108:	05000002 	streq	r0, [r0, #-2]
    110c:	00250249 	eoreq	r0, r5, r9, asr #4
    1110:	17380000 	ldrne	r0, [r8, -r0]!
    1114:	000003ff 	strdeq	r0, [r0], -pc	; <UNPREDICTABLE>
    1118:	d4024b05 	strle	r4, [r2], #-2821	; 0xfffff4fb
    111c:	3c000008 	stccc	0, cr0, [r0], {8}
    1120:	00026317 	andeq	r6, r2, r7, lsl r3
    1124:	024e0500 	subeq	r0, lr, #0, 10
    1128:	00000195 	muleq	r0, r5, r1
    112c:	01fb1740 	mvnseq	r1, r0, asr #14
    1130:	4f050000 	svcmi	0x00050000
    1134:	00002502 	andeq	r2, r0, r2, lsl #10
    1138:	35174400 	ldrcc	r4, [r7, #-1024]	; 0xfffffc00
    113c:	05000005 	streq	r0, [r0, #-5]
    1140:	01950250 	orrseq	r0, r5, r0, asr r2
    1144:	17480000 	strbne	r0, [r8, -r0]
    1148:	000002dd 	ldrdeq	r0, [r0], -sp
    114c:	da025105 	ble	95568 <rumboot_platform_stack_area_end+0x16568>
    1150:	4c000008 	stcmi	0, cr0, [r0], {8}
    1154:	00021917 	andeq	r1, r2, r7, lsl r9
    1158:	02540500 	subseq	r0, r4, #0, 10
    115c:	00000025 	andeq	r0, r0, r5, lsr #32
    1160:	010e1750 	tsteq	lr, r0, asr r7
    1164:	55050000 	strpl	r0, [r5, #-0]
    1168:	00012502 	andeq	r2, r1, r2, lsl #10
    116c:	0c175400 	cfldrseq	mvf5, [r7], {-0}
    1170:	05000003 	streq	r0, [r0, #-3]
    1174:	08140278 	ldmdaeq	r4, {r3, r4, r5, r6, r9}
    1178:	18580000 	ldmdane	r8, {}^	; <UNPREDICTABLE>
    117c:	000002c3 	andeq	r0, r0, r3, asr #5
    1180:	b2027c05 	andlt	r7, r2, #1280	; 0x500
    1184:	48000002 	stmdami	r0, {r1}
    1188:	02411801 	subeq	r1, r1, #65536	; 0x10000
    118c:	7d050000 	stcvc	0, cr0, [r5, #-0]
    1190:	00027402 	andeq	r7, r2, r2, lsl #8
    1194:	18014c00 	stmdane	r1, {sl, fp, lr}
    1198:	000004e9 	andeq	r0, r0, r9, ror #9
    119c:	eb028105 	bl	a15b8 <rumboot_platform_stack_area_end+0x225b8>
    11a0:	dc000008 	stcle	0, cr0, [r0], {8}
    11a4:	00e71802 	rsceq	r1, r7, r2, lsl #16
    11a8:	86050000 	strhi	r0, [r5], -r0
    11ac:	00061902 	andeq	r1, r6, r2, lsl #18
    11b0:	1802e000 	stmdane	r2, {sp, lr, pc}
    11b4:	000000cc 	andeq	r0, r0, ip, asr #1
    11b8:	f7028705 			; <UNDEFINED> instruction: 0xf7028705
    11bc:	ec000008 	stc	0, cr0, [r0], {8}
    11c0:	040d0002 	streq	r0, [sp], #-2
    11c4:	00000424 	andeq	r0, r0, r4, lsr #8
    11c8:	00002514 	andeq	r2, r0, r4, lsl r5
    11cc:	0005a300 	andeq	sl, r5, r0, lsl #6
    11d0:	04421500 	strbeq	r1, [r2], #-1280	; 0xfffffb00
    11d4:	23150000 	tstcs	r5, #0
    11d8:	15000001 	strne	r0, [r0, #-1]
    11dc:	000005a3 	andeq	r0, r0, r3, lsr #11
    11e0:	00002515 	andeq	r2, r0, r5, lsl r5
    11e4:	040d0000 	streq	r0, [sp], #-0
    11e8:	00000132 	andeq	r0, r0, r2, lsr r1
    11ec:	0585040d 	streq	r0, [r5, #1037]	; 0x40d
    11f0:	9f140000 	svcls	0x00140000
    11f4:	cd000000 	stcgt	0, cr0, [r0, #-0]
    11f8:	15000005 	strne	r0, [r0, #-5]
    11fc:	00000442 	andeq	r0, r0, r2, asr #8
    1200:	00012315 	andeq	r2, r1, r5, lsl r3
    1204:	009f1500 	addseq	r1, pc, r0, lsl #10
    1208:	25150000 	ldrcs	r0, [r5, #-0]
    120c:	00000000 	andeq	r0, r0, r0
    1210:	05af040d 	streq	r0, [pc, #1037]!	; 1625 <rumboot_vprintf+0x411>
    1214:	25140000 	ldrcs	r0, [r4, #-0]
    1218:	e7000000 	str	r0, [r0, -r0]
    121c:	15000005 	strne	r0, [r0, #-5]
    1220:	00000442 	andeq	r0, r0, r2, asr #8
    1224:	00012315 	andeq	r2, r1, r5, lsl r3
    1228:	040d0000 	streq	r0, [sp], #-0
    122c:	000005d3 	ldrdeq	r0, [r0], -r3
    1230:	00005f08 	andeq	r5, r0, r8, lsl #30
    1234:	0005fd00 	andeq	pc, r5, r0, lsl #26
    1238:	00e50900 	rsceq	r0, r5, r0, lsl #18
    123c:	00020000 	andeq	r0, r2, r0
    1240:	00005f08 	andeq	r5, r0, r8, lsl #30
    1244:	00060d00 	andeq	r0, r6, r0, lsl #26
    1248:	00e50900 	rsceq	r0, r5, r0, lsl #18
    124c:	00000000 	andeq	r0, r0, r0
    1250:	0003ba05 	andeq	fp, r3, r5, lsl #20
    1254:	011f0500 	tsteq	pc, r0, lsl #10
    1258:	000002fa 	strdeq	r0, [r0], -sl
    125c:	0004c319 	andeq	ip, r4, r9, lsl r3
    1260:	23050c00 	movwcs	r0, #23552	; 0x5c00
    1264:	00064e01 	andeq	r4, r6, r1, lsl #28
    1268:	03e21700 	mvneq	r1, #0, 14
    126c:	25050000 	strcs	r0, [r5, #-0]
    1270:	00064e01 	andeq	r4, r6, r1, lsl #28
    1274:	27170000 	ldrcs	r0, [r7, -r0]
    1278:	05000002 	streq	r0, [r0, #-2]
    127c:	00250126 	eoreq	r0, r5, r6, lsr #2
    1280:	17040000 	strne	r0, [r4, -r0]
    1284:	000003b4 			; <UNDEFINED> instruction: 0x000003b4
    1288:	54012705 	strpl	r2, [r1], #-1797	; 0xfffff8fb
    128c:	08000006 	stmdaeq	r0, {r1, r2}
    1290:	19040d00 	stmdbne	r4, {r8, sl, fp}
    1294:	0d000006 	stceq	0, cr0, [r0, #-24]	; 0xffffffe8
    1298:	00060d04 	andeq	r0, r6, r4, lsl #26
    129c:	001e1900 	andseq	r1, lr, r0, lsl #18
    12a0:	050e0000 	streq	r0, [lr, #-0]
    12a4:	068f013f 			; <UNDEFINED> instruction: 0x068f013f
    12a8:	31170000 	tstcc	r7, r0
    12ac:	05000004 	streq	r0, [r0, #-4]
    12b0:	068f0140 	streq	r0, [pc], r0, asr #2
    12b4:	17000000 	strne	r0, [r0, -r0]
    12b8:	0000045e 	andeq	r0, r0, lr, asr r4
    12bc:	8f014105 	svchi	0x00014105
    12c0:	06000006 	streq	r0, [r0], -r6
    12c4:	00047a17 	andeq	r7, r4, r7, lsl sl
    12c8:	01420500 	cmpeq	r2, r0, lsl #10
    12cc:	0000006d 	andeq	r0, r0, sp, rrx
    12d0:	6d08000c 	stcvs	0, cr0, [r8, #-48]	; 0xffffffd0
    12d4:	9f000000 	svcls	0x00000000
    12d8:	09000006 	stmdbeq	r0, {r1, r2}
    12dc:	000000e5 	andeq	r0, r0, r5, ror #1
    12e0:	d01a0002 	andsle	r0, sl, r2
    12e4:	a0025905 	andge	r5, r2, r5, lsl #18
    12e8:	17000007 	strne	r0, [r0, -r7]
    12ec:	000004a7 	andeq	r0, r0, r7, lsr #9
    12f0:	37025b05 	strcc	r5, [r2, -r5, lsl #22]
    12f4:	00000000 	andeq	r0, r0, r0
    12f8:	00046417 	andeq	r6, r4, r7, lsl r4
    12fc:	025c0500 	subseq	r0, ip, #0, 10
    1300:	00000125 	andeq	r0, r0, r5, lsr #2
    1304:	02561704 	subseq	r1, r6, #4, 14	; 0x100000
    1308:	5d050000 	stcpl	0, cr0, [r5, #-0]
    130c:	0007a002 	andeq	sl, r7, r2
    1310:	0c170800 	ldceq	8, cr0, [r7], {-0}
    1314:	05000005 	streq	r0, [r0, #-5]
    1318:	01ab025e 			; <UNDEFINED> instruction: 0x01ab025e
    131c:	17240000 	strne	r0, [r4, -r0]!
    1320:	000001e1 	andeq	r0, r0, r1, ror #3
    1324:	25025f05 	strcs	r5, [r2, #-3845]	; 0xfffff0fb
    1328:	48000000 	stmdami	r0, {}	; <UNPREDICTABLE>
    132c:	0003dd17 	andeq	sp, r3, r7, lsl sp
    1330:	02600500 	rsbeq	r0, r0, #0, 10
    1334:	00000082 	andeq	r0, r0, r2, lsl #1
    1338:	05221750 	streq	r1, [r2, #-1872]!	; 0xfffff8b0
    133c:	61050000 	mrsvs	r0, (UNDEF: 5)
    1340:	00065a02 	andeq	r5, r6, r2, lsl #20
    1344:	e8175800 	ldmda	r7, {fp, ip, lr}
    1348:	05000003 	streq	r0, [r0, #-3]
    134c:	010d0262 	tsteq	sp, r2, ror #4
    1350:	17680000 	strbne	r0, [r8, -r0]!
    1354:	00000527 	andeq	r0, r0, r7, lsr #10
    1358:	0d026305 	stceq	3, cr6, [r2, #-20]	; 0xffffffec
    135c:	70000001 	andvc	r0, r0, r1
    1360:	00009117 	andeq	r9, r0, r7, lsl r1
    1364:	02640500 	rsbeq	r0, r4, #0, 10
    1368:	0000010d 	andeq	r0, r0, sp, lsl #2
    136c:	04d71778 	ldrbeq	r1, [r7], #1912	; 0x778
    1370:	65050000 	strvs	r0, [r5, #-0]
    1374:	0007b002 	andeq	fp, r7, r2
    1378:	4a178000 	bmi	5e1380 <rumboot_platform_stack_area_end+0x562380>
    137c:	05000002 	streq	r0, [r0, #-2]
    1380:	07c00266 	strbeq	r0, [r0, r6, ror #4]
    1384:	17880000 	strne	r0, [r8, r0]
    1388:	00000487 	andeq	r0, r0, r7, lsl #9
    138c:	25026705 	strcs	r6, [r2, #-1797]	; 0xfffff8fb
    1390:	a0000000 	andge	r0, r0, r0
    1394:	00012f17 	andeq	r2, r1, r7, lsl pc
    1398:	02680500 	rsbeq	r0, r8, #0, 10
    139c:	0000010d 	andeq	r0, r0, sp, lsl #2
    13a0:	008217a4 	addeq	r1, r2, r4, lsr #15
    13a4:	69050000 	stmdbvs	r5, {}	; <UNPREDICTABLE>
    13a8:	00010d02 	andeq	r0, r1, r2, lsl #26
    13ac:	1e17ac00 	cdpne	12, 1, cr10, cr7, cr0, {0}
    13b0:	05000001 	streq	r0, [r0, #-1]
    13b4:	010d026a 	tsteq	sp, sl, ror #4
    13b8:	17b40000 	ldrne	r0, [r4, r0]!
    13bc:	00000037 	andeq	r0, r0, r7, lsr r0
    13c0:	0d026b05 	vstreq	d6, [r2, #-20]	; 0xffffffec
    13c4:	bc000001 	stclt	0, cr0, [r0], {1}
    13c8:	00004617 	andeq	r4, r0, r7, lsl r6
    13cc:	026c0500 	rsbeq	r0, ip, #0, 10
    13d0:	0000010d 	andeq	r0, r0, sp, lsl #2
    13d4:	039017c4 	orrseq	r1, r0, #196, 14	; 0x3100000
    13d8:	6d050000 	stcvs	0, cr0, [r5, #-0]
    13dc:	00002502 	andeq	r2, r0, r2, lsl #10
    13e0:	0800cc00 	stmdaeq	r0, {sl, fp, lr, pc}
    13e4:	0000012b 	andeq	r0, r0, fp, lsr #2
    13e8:	000007b0 			; <UNDEFINED> instruction: 0x000007b0
    13ec:	0000e509 	andeq	lr, r0, r9, lsl #10
    13f0:	08001900 	stmdaeq	r0, {r8, fp, ip}
    13f4:	0000012b 	andeq	r0, r0, fp, lsr #2
    13f8:	000007c0 	andeq	r0, r0, r0, asr #15
    13fc:	0000e509 	andeq	lr, r0, r9, lsl #10
    1400:	08000700 	stmdaeq	r0, {r8, r9, sl}
    1404:	0000012b 	andeq	r0, r0, fp, lsr #2
    1408:	000007d0 	ldrdeq	r0, [r0], -r0	; <UNPREDICTABLE>
    140c:	0000e509 	andeq	lr, r0, r9, lsl #10
    1410:	1a001700 	bne	7018 <__init_array_end+0x1e46>
    1414:	027205f0 	rsbseq	r0, r2, #240, 10	; 0x3c000000
    1418:	000007f4 	strdeq	r0, [r0], -r4
    141c:	0002b317 	andeq	fp, r2, r7, lsl r3
    1420:	02750500 	rsbseq	r0, r5, #0, 10
    1424:	000007f4 	strdeq	r0, [r0], -r4
    1428:	04ce1700 	strbeq	r1, [lr], #1792	; 0x700
    142c:	76050000 	strvc	r0, [r5], -r0
    1430:	00080402 	andeq	r0, r8, r2, lsl #8
    1434:	08007800 	stmdaeq	r0, {fp, ip, sp, lr}
    1438:	000002f4 	strdeq	r0, [r0], -r4
    143c:	00000804 	andeq	r0, r0, r4, lsl #16
    1440:	0000e509 	andeq	lr, r0, r9, lsl #10
    1444:	08001d00 	stmdaeq	r0, {r8, sl, fp, ip}
    1448:	00000037 	andeq	r0, r0, r7, lsr r0
    144c:	00000814 	andeq	r0, r0, r4, lsl r8
    1450:	0000e509 	andeq	lr, r0, r9, lsl #10
    1454:	1b001d00 	blne	885c <__init_array_end+0x368a>
    1458:	025705f0 	subseq	r0, r7, #240, 10	; 0x3c000000
    145c:	00000836 	andeq	r0, r0, r6, lsr r8
    1460:	00042a1c 	andeq	r2, r4, ip, lsl sl
    1464:	026e0500 	rsbeq	r0, lr, #0, 10
    1468:	0000069f 	muleq	r0, pc, r6	; <UNPREDICTABLE>
    146c:	0004f91c 	andeq	pc, r4, ip, lsl r9	; <UNPREDICTABLE>
    1470:	02770500 	rsbseq	r0, r7, #0, 10
    1474:	000007d0 	ldrdeq	r0, [r0], -r0	; <UNPREDICTABLE>
    1478:	012b0800 			; <UNDEFINED> instruction: 0x012b0800
    147c:	08460000 	stmdaeq	r6, {}^	; <UNPREDICTABLE>
    1480:	e5090000 	str	r0, [r9, #-0]
    1484:	18000000 	stmdane	r0, {}	; <UNPREDICTABLE>
    1488:	00771100 	rsbseq	r1, r7, r0, lsl #2
    148c:	016c0000 	cmneq	ip, r0
    1490:	08c3b206 	stmiaeq	r3, {r1, r2, r9, ip, sp, pc}^
    1494:	050b0000 	streq	r0, [fp, #-0]
    1498:	06000008 	streq	r0, [r0], -r8
    149c:	000d0fb4 			; <UNDEFINED> instruction: 0x000d0fb4
    14a0:	390b0000 	stmdbcc	fp, {}	; <UNPREDICTABLE>
    14a4:	06000007 	streq	r0, [r0], -r7
    14a8:	000d49b5 			; <UNDEFINED> instruction: 0x000d49b5
    14ac:	190be000 	stmdbne	fp, {sp, lr, pc}
    14b0:	06000006 	streq	r0, [r0], -r6
    14b4:	000d78b7 			; <UNDEFINED> instruction: 0x000d78b7
    14b8:	890be400 	stmdbhi	fp, {sl, sp, lr, pc}
    14bc:	06000005 	streq	r0, [r0], -r5
    14c0:	000025b9 			; <UNDEFINED> instruction: 0x000025b9
    14c4:	660be800 	strvs	lr, [fp], -r0, lsl #16
    14c8:	06000005 	streq	r0, [r0], -r5
    14cc:	000125ba 			; <UNDEFINED> instruction: 0x000125ba
    14d0:	830bec00 	movwhi	lr, #48128	; 0xbc00
    14d4:	06000005 	streq	r0, [r0], -r5
    14d8:	000935bb 			; <UNDEFINED> instruction: 0x000935bb
    14dc:	9712f000 	ldrls	pc, [r2, -r0]
    14e0:	06000006 	streq	r0, [r0], -r6
    14e4:	000d7ebd 			; <UNDEFINED> instruction: 0x000d7ebd
    14e8:	12012800 	andne	r2, r1, #0, 16
    14ec:	000006b8 			; <UNDEFINED> instruction: 0x000006b8
    14f0:	0d8ebe06 	stceq	14, cr11, [lr, #24]
    14f4:	012a0000 			; <UNDEFINED> instruction: 0x012a0000
    14f8:	00060912 	andeq	r0, r6, r2, lsl r9
    14fc:	8ebf0600 	cdphi	6, 11, cr0, cr15, cr0, {0}
    1500:	4a00000d 	bmi	153c <rumboot_vprintf+0x328>
    1504:	040d0001 	streq	r0, [sp], #-1
    1508:	00000846 	andeq	r0, r0, r6, asr #16
    150c:	0008d41d 	andeq	sp, r8, sp, lsl r4
    1510:	04421500 	strbeq	r1, [r2], #-1280	; 0xfffffb00
    1514:	0d000000 	stceq	0, cr0, [r0, #-0]
    1518:	0008c904 	andeq	ip, r8, r4, lsl #18
    151c:	95040d00 	strls	r0, [r4, #-3328]	; 0xfffff300
    1520:	1d000001 	stcne	0, cr0, [r0, #-4]
    1524:	000008eb 	andeq	r0, r0, fp, ror #17
    1528:	00002515 	andeq	r2, r0, r5, lsl r5
    152c:	040d0000 	streq	r0, [sp], #-0
    1530:	000008f1 	strdeq	r0, [r0], -r1
    1534:	08e0040d 	stmiaeq	r0!, {r0, r2, r3, sl}^
    1538:	0d080000 	stceq	0, cr0, [r8, #-0]
    153c:	07000006 	streq	r0, [r0, -r6]
    1540:	09000009 	stmdbeq	r0, {r0, r3}
    1544:	000000e5 	andeq	r0, r0, r5, ror #1
    1548:	9b1e0002 	blls	781558 <rumboot_platform_stack_area_end+0x702558>
    154c:	05000004 	streq	r0, [r0, #-4]
    1550:	044202fe 	strbeq	r0, [r2], #-766	; 0xfffffd02
    1554:	941e0000 	ldrls	r0, [lr], #-0
    1558:	05000004 	streq	r0, [r0, #-4]
    155c:	044802ff 	strbeq	r0, [r8], #-767	; 0xfffffd01
    1560:	d31f0000 	tstle	pc, #0
    1564:	07000006 	streq	r0, [r0, -r6]
    1568:	00012563 	andeq	r2, r1, r3, ror #10
    156c:	03c20300 	biceq	r0, r2, #0, 6
    1570:	56080000 	strpl	r0, [r8], -r0
    1574:	0000010d 	andeq	r0, r0, sp, lsl #2
    1578:	0005830f 	andeq	r8, r5, pc, lsl #6
    157c:	2a093800 	bcs	24f584 <rumboot_platform_stack_area_end+0x1d0584>
    1580:	00000a62 	andeq	r0, r0, r2, ror #20
    1584:	00066c0b 	andeq	r6, r6, fp, lsl #24
    1588:	252c0900 	strcs	r0, [ip, #-2304]!	; 0xfffff700
    158c:	00000001 	andeq	r0, r0, r1
    1590:	0007440b 	andeq	r4, r7, fp, lsl #8
    1594:	252d0900 	strcs	r0, [sp, #-2304]!	; 0xfffff700
    1598:	04000001 	streq	r0, [r0], #-1
    159c:	0006470b 	andeq	r4, r6, fp, lsl #14
    15a0:	252e0900 	strcs	r0, [lr, #-2304]!	; 0xfffff700
    15a4:	08000001 	stmdaeq	r0, {r0}
    15a8:	0005ae0b 	andeq	sl, r5, fp, lsl #28
    15ac:	252f0900 	strcs	r0, [pc, #-2304]!	; cb4 <gic_init+0x14>
    15b0:	0c000001 	stceq	0, cr0, [r0], {1}
    15b4:	0005560b 	andeq	r5, r5, fp, lsl #12
    15b8:	25300900 	ldrcs	r0, [r0, #-2304]!	; 0xfffff700
    15bc:	10000001 	andne	r0, r0, r1
    15c0:	0006680b 	andeq	r6, r6, fp, lsl #16
    15c4:	25310900 	ldrcs	r0, [r1, #-2304]!	; 0xfffff700
    15c8:	14000001 	strne	r0, [r0], #-1
    15cc:	0007400b 	andeq	r4, r7, fp
    15d0:	25320900 	ldrcs	r0, [r2, #-2304]!	; 0xfffff700
    15d4:	18000001 	stmdane	r0, {r0}
    15d8:	0006430b 	andeq	r4, r6, fp, lsl #6
    15dc:	25330900 	ldrcs	r0, [r3, #-2304]!	; 0xfffff700
    15e0:	1c000001 	stcne	0, cr0, [r0], {1}
    15e4:	0006aa0b 	andeq	sl, r6, fp, lsl #20
    15e8:	25340900 	ldrcs	r0, [r4, #-2304]!	; 0xfffff700
    15ec:	20000001 	andcs	r0, r0, r1
    15f0:	0006890b 	andeq	r8, r6, fp, lsl #18
    15f4:	25350900 	ldrcs	r0, [r5, #-2304]!	; 0xfffff700
    15f8:	24000001 	strcs	r0, [r0], #-1
    15fc:	0008270b 	andeq	r2, r8, fp, lsl #14
    1600:	2b360900 	blcs	d83a08 <rumboot_platform_stack_area_end+0xd04a08>
    1604:	28000001 	stmdacs	r0, {r0}
    1608:	00082b0b 	andeq	r2, r8, fp, lsl #22
    160c:	2b370900 	blcs	dc3a14 <rumboot_platform_stack_area_end+0xd44a14>
    1610:	29000001 	stmdbcs	r0, {r0}
    1614:	00065a0b 	andeq	r5, r6, fp, lsl #20
    1618:	2b380900 	blcs	e03a20 <rumboot_platform_stack_area_end+0xd84a20>
    161c:	2a000001 	bcs	1628 <rumboot_vprintf+0x414>
    1620:	0006e10b 	andeq	lr, r6, fp, lsl #2
    1624:	2b390900 	blcs	e43a2c <rumboot_platform_stack_area_end+0xdc4a2c>
    1628:	2b000001 	blcs	1634 <rumboot_vprintf+0x420>
    162c:	0006f40b 	andeq	pc, r6, fp, lsl #8
    1630:	2b3a0900 	blcs	e83a38 <rumboot_platform_stack_area_end+0xe04a38>
    1634:	2c000001 	stccs	0, cr0, [r0], {1}
    1638:	0005740b 	andeq	r7, r5, fp, lsl #8
    163c:	2b3b0900 	blcs	ec3a44 <rumboot_platform_stack_area_end+0xe44a44>
    1640:	2d000001 	stccs	0, cr0, [r0, #-4]
    1644:	0006370b 	andeq	r3, r6, fp, lsl #14
    1648:	2b3c0900 	blcs	f03a50 <rumboot_platform_stack_area_end+0xe84a50>
    164c:	2e000001 	cdpcs	0, 0, cr0, cr0, cr1, {0}
    1650:	0008140b 	andeq	r1, r8, fp, lsl #8
    1654:	2b3d0900 	blcs	f43a5c <rumboot_platform_stack_area_end+0xec4a5c>
    1658:	2f000001 	svccs	0x00000001
    165c:	0006f00b 	andeq	pc, r6, fp
    1660:	2b3e0900 	blcs	f83a68 <rumboot_platform_stack_area_end+0xf04a68>
    1664:	30000001 	andcc	r0, r0, r1
    1668:	0005700b 	andeq	r7, r5, fp
    166c:	2b3f0900 	blcs	fc3a74 <rumboot_platform_stack_area_end+0xf44a74>
    1670:	31000001 	tstcc	r0, r1
    1674:	0008100b 	andeq	r1, r8, fp
    1678:	2b400900 	blcs	1003a80 <rumboot_platform_stack_area_end+0xf84a80>
    167c:	32000001 	andcc	r0, r0, #1
    1680:	0006560b 	andeq	r5, r6, fp, lsl #12
    1684:	2b410900 	blcs	1043a8c <rumboot_platform_stack_area_end+0xfc4a8c>
    1688:	33000001 	movwcc	r0, #1
    168c:	0006dd0b 	andeq	sp, r6, fp, lsl #26
    1690:	2b420900 	blcs	1083a98 <rumboot_platform_stack_area_end+0x1004a98>
    1694:	34000001 	strcc	r0, [r0], #-1
    1698:	0006330b 	andeq	r3, r6, fp, lsl #6
    169c:	2b430900 	blcs	10c3aa4 <rumboot_platform_stack_area_end+0x1044aa4>
    16a0:	35000001 	strcc	r0, [r0, #-1]
    16a4:	07240f00 	streq	r0, [r4, -r0, lsl #30]!
    16a8:	06080000 	streq	r0, [r8], -r0
    16ac:	000a8739 	andeq	r8, sl, r9, lsr r7
    16b0:	06110b00 	ldreq	r0, [r1], -r0, lsl #22
    16b4:	3b060000 	blcc	1816bc <rumboot_platform_stack_area_end+0x1026bc>
    16b8:	000005a3 	andeq	r0, r0, r3, lsr #11
    16bc:	06970b00 	ldreq	r0, [r7], r0, lsl #22
    16c0:	3c060000 	stccc	0, cr0, [r6], {-0}
    16c4:	000005a3 	andeq	r0, r0, r3, lsr #11
    16c8:	620e0004 	andvs	r0, lr, #4
    16cc:	1f00000a 	svcne	0x0000000a
    16d0:	000005d3 	ldrdeq	r0, [r0], -r3
    16d4:	0a874206 	beq	fe1d1ef4 <rumboot_platform_stack_area_end+0xfe152ef4>
    16d8:	fb0f0000 	blx	3c16e2 <rumboot_platform_stack_area_end+0x3426e2>
    16dc:	3c000005 	stccc	0, cr0, [r0], {5}
    16e0:	0b584406 	bleq	1612700 <rumboot_platform_stack_area_end+0x1593700>
    16e4:	ae0b0000 	cdpge	0, 0, cr0, cr11, cr0, {0}
    16e8:	06000005 	streq	r0, [r0], -r5
    16ec:	0005a346 	andeq	sl, r5, r6, asr #6
    16f0:	560b0000 	strpl	r0, [fp], -r0
    16f4:	06000005 	streq	r0, [r0], -r5
    16f8:	0005a347 	andeq	sl, r5, r7, asr #6
    16fc:	680b0400 	stmdavs	fp, {sl}
    1700:	06000006 	streq	r0, [r0], -r6
    1704:	0005a348 	andeq	sl, r5, r8, asr #6
    1708:	400b0800 	andmi	r0, fp, r0, lsl #16
    170c:	06000007 	streq	r0, [r0], -r7
    1710:	0005a349 	andeq	sl, r5, r9, asr #6
    1714:	430b0c00 	movwmi	r0, #48128	; 0xbc00
    1718:	06000006 	streq	r0, [r0], -r6
    171c:	0005a34a 	andeq	sl, r5, sl, asr #6
    1720:	aa0b1000 	bge	2c5728 <rumboot_platform_stack_area_end+0x246728>
    1724:	06000006 	streq	r0, [r0], -r6
    1728:	0005a34b 	andeq	sl, r5, fp, asr #6
    172c:	890b1400 	stmdbhi	fp, {sl, ip}
    1730:	06000006 	streq	r0, [r0], -r6
    1734:	0005a34c 	andeq	sl, r5, ip, asr #6
    1738:	270b1800 	strcs	r1, [fp, -r0, lsl #16]
    173c:	06000008 	streq	r0, [r0], -r8
    1740:	0005a34d 	andeq	sl, r5, sp, asr #6
    1744:	2b0b1c00 	blcs	2c874c <rumboot_platform_stack_area_end+0x24974c>
    1748:	06000008 	streq	r0, [r0], -r8
    174c:	0005a34e 	andeq	sl, r5, lr, asr #6
    1750:	5a0b2000 	bpl	2c9758 <rumboot_platform_stack_area_end+0x24a758>
    1754:	06000006 	streq	r0, [r0], -r6
    1758:	0005a34f 	andeq	sl, r5, pc, asr #6
    175c:	e10b2400 	tst	fp, r0, lsl #8
    1760:	06000006 	streq	r0, [r0], -r6
    1764:	0005a350 	andeq	sl, r5, r0, asr r3
    1768:	f40b2800 	vst2.8	{d2-d3}, [fp], r0
    176c:	06000006 	streq	r0, [r0], -r6
    1770:	0005a351 	andeq	sl, r5, r1, asr r3
    1774:	740b2c00 	strvc	r2, [fp], #-3072	; 0xfffff400
    1778:	06000005 	streq	r0, [r0], -r5
    177c:	0005a352 	andeq	sl, r5, r2, asr r3
    1780:	370b3000 	strcc	r3, [fp, -r0]
    1784:	06000006 	streq	r0, [r0], -r6
    1788:	0005a353 	andeq	sl, r5, r3, asr r3
    178c:	140b3400 	strne	r3, [fp], #-1024	; 0xfffffc00
    1790:	06000008 	streq	r0, [r0], -r8
    1794:	0005a354 	andeq	sl, r5, r4, asr r3
    1798:	0e003800 	cdpeq	8, 0, cr3, cr0, cr0, {0}
    179c:	00000a97 	muleq	r0, r7, sl
    17a0:	0007711f 	andeq	r7, r7, pc, lsl r1
    17a4:	58650600 	stmdapl	r5!, {r9, sl}^
    17a8:	0f00000b 	svceq	0x0000000b
    17ac:	00000592 	muleq	r0, r2, r5
    17b0:	9967060c 	stmdbls	r7!, {r2, r3, r9, sl}^
    17b4:	0b00000b 	bleq	17e8 <test_suite_run_single+0xd4>
    17b8:	0000066c 	andeq	r0, r0, ip, ror #12
    17bc:	05a36906 	streq	r6, [r3, #2310]!	; 0x906
    17c0:	0b000000 	bleq	17c8 <test_suite_run_single+0xb4>
    17c4:	00000744 	andeq	r0, r0, r4, asr #14
    17c8:	05a36a06 	streq	r6, [r3, #2566]!	; 0xa06
    17cc:	0b040000 	bleq	1017d4 <rumboot_platform_stack_area_end+0x827d4>
    17d0:	00000647 	andeq	r0, r0, r7, asr #12
    17d4:	05a36b06 	streq	r6, [r3, #2822]!	; 0xb06
    17d8:	00080000 	andeq	r0, r8, r0
    17dc:	000b680e 	andeq	r6, fp, lr, lsl #16
    17e0:	05441f00 	strbeq	r1, [r4, #-3840]	; 0xfffff100
    17e4:	72060000 	andvc	r0, r6, #0
    17e8:	00000b99 	muleq	r0, r9, fp
    17ec:	0005be0f 	andeq	fp, r5, pc, lsl #28
    17f0:	7406fc00 	strvc	pc, [r6], #-3072	; 0xfffff400
    17f4:	00000c82 	andeq	r0, r0, r2, lsl #25
    17f8:	6e6f6d10 	mcrvs	13, 3, r6, cr15, cr0, {0}
    17fc:	87760600 	ldrbhi	r0, [r6, -r0, lsl #12]!
    1800:	0000000c 	andeq	r0, r0, ip
    1804:	0008b00b 	andeq	fp, r8, fp
    1808:	87770600 	ldrbhi	r0, [r7, -r0, lsl #12]!
    180c:	3000000c 	andcc	r0, r0, ip
    1810:	0004be0b 	andeq	fp, r4, fp, lsl #28
    1814:	97780600 	ldrbls	r0, [r8, -r0, lsl #12]!
    1818:	6000000c 	andvs	r0, r0, ip
    181c:	0007690b 	andeq	r6, r7, fp, lsl #18
    1820:	97790600 	ldrbls	r0, [r9, -r0, lsl #12]!
    1824:	7c00000c 	stcvc	0, cr0, [r0], {12}
    1828:	0006500b 	andeq	r5, r6, fp
    182c:	a37a0600 	cmnge	sl, #0, 12
    1830:	98000005 	stmdals	r0, {r0, r2}
    1834:	0006cd0b 	andeq	ip, r6, fp, lsl #26
    1838:	a37b0600 	cmnge	fp, #0, 12
    183c:	9c000005 	stcls	0, cr0, [r0], {5}
    1840:	00067a0b 	andeq	r7, r6, fp, lsl #20
    1844:	a37c0600 	cmnge	ip, #0, 12
    1848:	a0000005 	andge	r0, r0, r5
    184c:	0005e30b 	andeq	lr, r5, fp, lsl #6
    1850:	a77d0600 	ldrbge	r0, [sp, -r0, lsl #12]!
    1854:	a400000c 	strge	r0, [r0], #-12
    1858:	0006800b 	andeq	r8, r6, fp
    185c:	a37e0600 	cmnge	lr, #0, 12
    1860:	ac000005 	stcge	0, cr0, [r0], {5}
    1864:	0008ac0b 	andeq	sl, r8, fp, lsl #24
    1868:	877f0600 	ldrbhi	r0, [pc, -r0, lsl #12]!
    186c:	b000000c 	andlt	r0, r0, ip
    1870:	0007020b 	andeq	r0, r7, fp, lsl #4
    1874:	a3800600 	orrge	r0, r0, #0, 12
    1878:	e0000005 	and	r0, r0, r5
    187c:	0007520b 	andeq	r5, r7, fp, lsl #4
    1880:	a3810600 	orrge	r0, r1, #0, 12
    1884:	e4000005 	str	r0, [r0], #-5
    1888:	61726510 	cmnvs	r2, r0, lsl r5
    188c:	a3820600 	orrge	r0, r2, #0, 12
    1890:	e8000005 	stmda	r0, {r0, r2}
    1894:	00071a0b 	andeq	r1, r7, fp, lsl #20
    1898:	a3830600 	orrge	r0, r3, #0, 12
    189c:	ec000005 	stc	0, cr0, [r0], {5}
    18a0:	0005e90b 	andeq	lr, r5, fp, lsl #18
    18a4:	a3840600 	orrge	r0, r4, #0, 12
    18a8:	f0000005 			; <UNDEFINED> instruction: 0xf0000005
    18ac:	00072f0b 	andeq	r2, r7, fp, lsl #30
    18b0:	a3850600 	orrge	r0, r5, #0, 12
    18b4:	f4000005 	vst4.8	{d0-d3}, [r0], r5
    18b8:	0005c80b 	andeq	ip, r5, fp, lsl #16
    18bc:	a3860600 	orrge	r0, r6, #0, 12
    18c0:	f8000005 			; <UNDEFINED> instruction: 0xf8000005
    18c4:	0ba90e00 	bleq	fea450cc <rumboot_platform_stack_area_end+0xfe9c60cc>
    18c8:	a3080000 	movwge	r0, #32768	; 0x8000
    18cc:	97000005 	strls	r0, [r0, -r5]
    18d0:	0900000c 	stmdbeq	r0, {r2, r3}
    18d4:	000000e5 	andeq	r0, r0, r5, ror #1
    18d8:	a308000b 	movwge	r0, #32779	; 0x800b
    18dc:	a7000005 	strge	r0, [r0, -r5]
    18e0:	0900000c 	stmdbeq	r0, {r2, r3}
    18e4:	000000e5 	andeq	r0, r0, r5, ror #1
    18e8:	a3080006 	movwge	r0, #32774	; 0x8006
    18ec:	b7000005 	strlt	r0, [r0, -r5]
    18f0:	0900000c 	stmdbeq	r0, {r2, r3}
    18f4:	000000e5 	andeq	r0, r0, r5, ror #1
    18f8:	9f1f0001 	svcls	0x001f0001
    18fc:	06000005 	streq	r0, [r0], -r5
    1900:	000c829a 	muleq	ip, sl, r2
    1904:	075b0f00 	ldrbeq	r0, [fp, -r0, lsl #30]
    1908:	06100000 	ldreq	r0, [r0], -r0
    190c:	000cff9c 	muleq	ip, ip, pc	; <UNPREDICTABLE>
    1910:	07120b00 	ldreq	r0, [r2, -r0, lsl #22]
    1914:	9e060000 	cdpls	0, 0, cr0, cr6, cr0, {0}
    1918:	000005a3 	andeq	r0, r0, r3, lsr #11
    191c:	06c60b00 	strbeq	r0, [r6], r0, lsl #22
    1920:	9f060000 	svcls	0x00060000
    1924:	000005a3 	andeq	r0, r0, r3, lsr #11
    1928:	070b0b04 	streq	r0, [fp, -r4, lsl #22]
    192c:	a0060000 	andge	r0, r6, r0
    1930:	000005a3 	andeq	r0, r0, r3, lsr #11
    1934:	05f50b08 	ldrbeq	r0, [r5, #2824]!	; 0xb08
    1938:	a1060000 	mrsge	r0, (UNDEF: 6)
    193c:	000005a3 	andeq	r0, r0, r3, lsr #11
    1940:	c20e000c 	andgt	r0, lr, #12
    1944:	1f00000c 	svcne	0x0000000c
    1948:	00000620 	andeq	r0, r0, r0, lsr #12
    194c:	0cffaa06 	vldmiaeq	pc!, {s21-s26}
    1950:	2b080000 	blcs	201958 <rumboot_platform_stack_area_end+0x182958>
    1954:	25000001 	strcs	r0, [r0, #-1]
    1958:	0900000d 	stmdbeq	r0, {r0, r2, r3}
    195c:	000000e5 	andeq	r0, r0, r5, ror #1
    1960:	00e50906 	rsceq	r0, r5, r6, lsl #18
    1964:	001f0000 	andseq	r0, pc, r0
    1968:	00002514 	andeq	r2, r0, r4, lsl r5
    196c:	000d4300 	andeq	r4, sp, r0, lsl #6
    1970:	04421500 	strbeq	r1, [r2], #-1280	; 0xfffffb00
    1974:	25150000 	ldrcs	r0, [r5, #-0]
    1978:	15000001 	strne	r0, [r0, #-1]
    197c:	0000003e 	andeq	r0, r0, lr, lsr r0
    1980:	000d4315 	andeq	r4, sp, r5, lsl r3
    1984:	040d0000 	streq	r0, [sp], #-0
    1988:	0000092a 	andeq	r0, r0, sl, lsr #18
    198c:	0d25040d 	cfstrseq	mvf0, [r5, #-52]!	; 0xffffffcc
    1990:	25140000 	ldrcs	r0, [r4, #-0]
    1994:	72000000 	andvc	r0, r0, #0
    1998:	1500000d 	strne	r0, [r0, #-13]
    199c:	00000442 	andeq	r0, r0, r2, asr #8
    19a0:	000d7215 	andeq	r7, sp, r5, lsl r2
    19a4:	05a31500 	streq	r1, [r3, #1280]!	; 0x500
    19a8:	2c150000 	ldccs	0, cr0, [r5], {-0}
    19ac:	15000000 	strne	r0, [r0, #-0]
    19b0:	00000d43 	andeq	r0, r0, r3, asr #26
    19b4:	3e040d00 	cdpcc	13, 0, cr0, cr4, cr0, {0}
    19b8:	0d000000 	stceq	0, cr0, [r0, #-0]
    19bc:	000d4f04 	andeq	r4, sp, r4, lsl #30
    19c0:	012b0800 			; <UNDEFINED> instruction: 0x012b0800
    19c4:	0d8e0000 	stceq	0, cr0, [lr]
    19c8:	e5090000 	str	r0, [r9, #-0]
    19cc:	01000000 	mrseq	r0, (UNDEF: 0)
    19d0:	012b0800 			; <UNDEFINED> instruction: 0x012b0800
    19d4:	0d9e0000 	ldceq	0, cr0, [lr]
    19d8:	e5090000 	str	r0, [r9, #-0]
    19dc:	1f000000 	svcne	0x00000000
    19e0:	08202000 	stmdaeq	r0!, {sp}
    19e4:	1d0a0000 	stcne	0, cr0, [sl, #-0]
    19e8:	00000123 	andeq	r0, r0, r3, lsr #2
    19ec:	000039c0 	andeq	r3, r0, r0, asr #19
    19f0:	0000001c 	andeq	r0, r0, ip, lsl r0
    19f4:	6d219c01 	stcvs	12, cr9, [r1, #-4]!
    19f8:	232d0100 			; <UNDEFINED> instruction: 0x232d0100
    19fc:	01000001 	tsteq	r0, r1
    1a00:	00632150 	rsbeq	r2, r3, r0, asr r1
    1a04:	00252d01 	eoreq	r2, r5, r1, lsl #26
    1a08:	51010000 	mrspl	r0, (UNDEF: 1)
    1a0c:	01006e22 	tsteq	r0, r2, lsr #28
    1a10:	00002c2d 	andeq	r2, r0, sp, lsr #24
    1a14:	00009200 	andeq	r9, r0, r0, lsl #4
    1a18:	00732300 	rsbseq	r2, r3, r0, lsl #6
    1a1c:	01253201 			; <UNDEFINED> instruction: 0x01253201
    1a20:	00b30000 	adcseq	r0, r3, r0
    1a24:	00000000 	andeq	r0, r0, r0

Disassembly of section .debug_abbrev:

00000000 <.debug_abbrev>:
   0:	10001101 	andne	r1, r0, r1, lsl #2
   4:	12011106 	andne	r1, r1, #-2147483647	; 0x80000001
   8:	1b080301 	blne	200c14 <rumboot_platform_stack_area_end+0x181c14>
   c:	13082508 	movwne	r2, #34056	; 0x8508
  10:	00000005 	andeq	r0, r0, r5
  14:	10001101 	andne	r1, r0, r1, lsl #2
  18:	12011106 	andne	r1, r1, #-2147483647	; 0x80000001
  1c:	1b080301 	blne	200c28 <rumboot_platform_stack_area_end+0x181c28>
  20:	13082508 	movwne	r2, #34056	; 0x8508
  24:	00000005 	andeq	r0, r0, r5
  28:	10001101 	andne	r1, r0, r1, lsl #2
  2c:	12011106 	andne	r1, r1, #-2147483647	; 0x80000001
  30:	1b080301 	blne	200c3c <rumboot_platform_stack_area_end+0x181c3c>
  34:	13082508 	movwne	r2, #34056	; 0x8508
  38:	00000005 	andeq	r0, r0, r5
  3c:	25011101 	strcs	r1, [r1, #-257]	; 0xfffffeff
  40:	030b130e 	movweq	r1, #45838	; 0xb30e
  44:	1117550e 	tstne	r7, lr, lsl #10
  48:	00171001 	andseq	r1, r7, r1
  4c:	00240200 	eoreq	r0, r4, r0, lsl #4
  50:	0b3e0b0b 	bleq	f82c84 <rumboot_platform_stack_area_end+0xf03c84>
  54:	00000803 	andeq	r0, r0, r3, lsl #16
  58:	03001603 	movweq	r1, #1539	; 0x603
  5c:	3b0b3a0e 	blcc	2ce89c <rumboot_platform_stack_area_end+0x24f89c>
  60:	0013490b 	andseq	r4, r3, fp, lsl #18
  64:	00240400 	eoreq	r0, r4, r0, lsl #8
  68:	0b3e0b0b 	bleq	f82c9c <rumboot_platform_stack_area_end+0xf03c9c>
  6c:	00000e03 	andeq	r0, r0, r3, lsl #28
  70:	03001605 	movweq	r1, #1541	; 0x605
  74:	3b0b3a0e 	blcc	2ce8b4 <rumboot_platform_stack_area_end+0x24f8b4>
  78:	00134905 	andseq	r4, r3, r5, lsl #18
  7c:	01170600 	tsteq	r7, r0, lsl #12
  80:	0b3a0b0b 	bleq	e82cb4 <rumboot_platform_stack_area_end+0xe03cb4>
  84:	13010b3b 	movwne	r0, #6971	; 0x1b3b
  88:	0d070000 	stceq	0, cr0, [r7, #-0]
  8c:	3a0e0300 	bcc	380c94 <rumboot_platform_stack_area_end+0x301c94>
  90:	490b3b0b 	stmdbmi	fp, {r0, r1, r3, r8, r9, fp, ip, sp}
  94:	08000013 	stmdaeq	r0, {r0, r1, r4}
  98:	13490101 	movtne	r0, #37121	; 0x9101
  9c:	00001301 	andeq	r1, r0, r1, lsl #6
  a0:	49002109 	stmdbmi	r0, {r0, r3, r8, sp}
  a4:	000b2f13 	andeq	r2, fp, r3, lsl pc
  a8:	01130a00 	tsteq	r3, r0, lsl #20
  ac:	0b3a0b0b 	bleq	e82ce0 <rumboot_platform_stack_area_end+0xe03ce0>
  b0:	13010b3b 	movwne	r0, #6971	; 0x1b3b
  b4:	0d0b0000 	stceq	0, cr0, [fp, #-0]
  b8:	3a0e0300 	bcc	380cc0 <rumboot_platform_stack_area_end+0x301cc0>
  bc:	490b3b0b 	stmdbmi	fp, {r0, r1, r3, r8, r9, fp, ip, sp}
  c0:	000b3813 	andeq	r3, fp, r3, lsl r8
  c4:	000f0c00 	andeq	r0, pc, r0, lsl #24
  c8:	00000b0b 	andeq	r0, r0, fp, lsl #22
  cc:	4900370d 	stmdbmi	r0, {r0, r2, r3, r8, r9, sl, ip, sp}
  d0:	0e000013 	mcreq	0, 0, r0, cr0, cr3, {0}
  d4:	0b0b000f 	bleq	2c0118 <rumboot_platform_stack_area_end+0x241118>
  d8:	00001349 	andeq	r1, r0, r9, asr #6
  dc:	4900260f 	stmdbmi	r0, {r0, r1, r2, r3, r9, sl, sp}
  e0:	10000013 	andne	r0, r0, r3, lsl r0
  e4:	0e030113 	mcreq	1, 0, r0, cr3, cr3, {0}
  e8:	0b3a0b0b 	bleq	e82d1c <rumboot_platform_stack_area_end+0xe03d1c>
  ec:	13010b3b 	movwne	r0, #6971	; 0x1b3b
  f0:	0d110000 	ldceq	0, cr0, [r1, #-0]
  f4:	3a080300 	bcc	200cfc <rumboot_platform_stack_area_end+0x181cfc>
  f8:	490b3b0b 	stmdbmi	fp, {r0, r1, r3, r8, r9, fp, ip, sp}
  fc:	000b3813 	andeq	r3, fp, r3, lsl r8
 100:	01131200 	tsteq	r3, r0, lsl #4
 104:	050b0e03 	streq	r0, [fp, #-3587]	; 0xfffff1fd
 108:	0b3b0b3a 	bleq	ec2df8 <rumboot_platform_stack_area_end+0xe43df8>
 10c:	00001301 	andeq	r1, r0, r1, lsl #6
 110:	03000d13 	movweq	r0, #3347	; 0xd13
 114:	3b0b3a0e 	blcc	2ce954 <rumboot_platform_stack_area_end+0x24f954>
 118:	3813490b 	ldmdacc	r3, {r0, r1, r3, r8, fp, lr}
 11c:	14000005 	strne	r0, [r0], #-5
 120:	19270015 	stmdbne	r7!, {r0, r2, r4}
 124:	15150000 	ldrne	r0, [r5, #-0]
 128:	49192701 	ldmdbmi	r9, {r0, r8, r9, sl, sp}
 12c:	00130113 	andseq	r0, r3, r3, lsl r1
 130:	00051600 	andeq	r1, r5, r0, lsl #12
 134:	00001349 	andeq	r1, r0, r9, asr #6
 138:	03011317 	movweq	r1, #4887	; 0x1317
 13c:	3a050b0e 	bcc	142d7c <rumboot_platform_stack_area_end+0xc3d7c>
 140:	01053b0b 	tsteq	r5, fp, lsl #22
 144:	18000013 	stmdane	r0, {r0, r1, r4}
 148:	0e03000d 	cdpeq	0, 0, cr0, cr3, cr13, {0}
 14c:	053b0b3a 	ldreq	r0, [fp, #-2874]!	; 0xfffff4c6
 150:	0b381349 	bleq	e04e7c <rumboot_platform_stack_area_end+0xd85e7c>
 154:	0d190000 	ldceq	0, cr0, [r9, #-0]
 158:	3a0e0300 	bcc	380d60 <rumboot_platform_stack_area_end+0x301d60>
 15c:	49053b0b 	stmdbmi	r5, {r0, r1, r3, r8, r9, fp, ip, sp}
 160:	00053813 	andeq	r3, r5, r3, lsl r8
 164:	01131a00 	tsteq	r3, r0, lsl #20
 168:	0b0b0e03 	bleq	2c397c <rumboot_platform_stack_area_end+0x24497c>
 16c:	053b0b3a 	ldreq	r0, [fp, #-2874]!	; 0xfffff4c6
 170:	00001301 	andeq	r1, r0, r1, lsl #6
 174:	0b01131b 	bleq	44de8 <rumboot_platform_spl_start+0x4de8>
 178:	3b0b3a0b 	blcc	2ce9ac <rumboot_platform_stack_area_end+0x24f9ac>
 17c:	00130105 	andseq	r0, r3, r5, lsl #2
 180:	01171c00 	tsteq	r7, r0, lsl #24
 184:	0b3a0b0b 	bleq	e82db8 <rumboot_platform_stack_area_end+0xe03db8>
 188:	1301053b 	movwne	r0, #5435	; 0x153b
 18c:	0d1d0000 	ldceq	0, cr0, [sp, #-0]
 190:	3a0e0300 	bcc	380d98 <rumboot_platform_stack_area_end+0x301d98>
 194:	49053b0b 	stmdbmi	r5, {r0, r1, r3, r8, r9, fp, ip, sp}
 198:	1e000013 	mcrne	0, 0, r0, cr0, cr3, {0}
 19c:	0e030013 	mcreq	0, 0, r0, cr3, cr3, {0}
 1a0:	0000193c 	andeq	r1, r0, ip, lsr r9
 1a4:	2701151f 	smladcs	r1, pc, r5, r1	; <UNPREDICTABLE>
 1a8:	00130119 	andseq	r0, r3, r9, lsl r1
 1ac:	00342000 	eorseq	r2, r4, r0
 1b0:	0b3a0e03 	bleq	e839c4 <rumboot_platform_stack_area_end+0xe049c4>
 1b4:	1349053b 	movtne	r0, #38203	; 0x953b
 1b8:	193c193f 	ldmdbne	ip!, {r0, r1, r2, r3, r4, r5, r8, fp, ip}
 1bc:	2e210000 	cdpcs	0, 2, cr0, cr1, cr0, {0}
 1c0:	03193f01 	tsteq	r9, #1, 30
 1c4:	3b0b3a0e 	blcc	2cea04 <rumboot_platform_stack_area_end+0x24fa04>
 1c8:	4919270b 	ldmdbmi	r9, {r0, r1, r3, r8, r9, sl, sp}
 1cc:	12011113 	andne	r1, r1, #-1073741820	; 0xc0000004
 1d0:	97184006 	ldrls	r4, [r8, -r6]
 1d4:	13011942 	movwne	r1, #6466	; 0x1942
 1d8:	05220000 	streq	r0, [r2, #-0]!
 1dc:	3a0e0300 	bcc	380de4 <rumboot_platform_stack_area_end+0x301de4>
 1e0:	490b3b0b 	stmdbmi	fp, {r0, r1, r3, r8, r9, fp, ip, sp}
 1e4:	00180213 	andseq	r0, r8, r3, lsl r2
 1e8:	00052300 	andeq	r2, r5, r0, lsl #6
 1ec:	0b3a0e03 	bleq	e83a00 <rumboot_platform_stack_area_end+0xe04a00>
 1f0:	13490b3b 	movtne	r0, #39739	; 0x9b3b
 1f4:	00001702 	andeq	r1, r0, r2, lsl #14
 1f8:	03003424 	movweq	r3, #1060	; 0x424
 1fc:	3b0b3a08 	blcc	2cea24 <rumboot_platform_stack_area_end+0x24fa24>
 200:	0213490b 	andseq	r4, r3, #180224	; 0x2c000
 204:	25000017 	strcs	r0, [r0, #-23]	; 0xffffffe9
 208:	0e030034 	mcreq	0, 0, r0, cr3, cr4, {1}
 20c:	0b3b0b3a 	bleq	ec2efc <rumboot_platform_stack_area_end+0xe43efc>
 210:	18021349 	stmdane	r2, {r0, r3, r6, r8, r9, ip}
 214:	26260000 	strtcs	r0, [r6], -r0
 218:	00000000 	andeq	r0, r0, r0
 21c:	25011101 	strcs	r1, [r1, #-257]	; 0xfffffeff
 220:	030b130e 	movweq	r1, #45838	; 0xb30e
 224:	550e1b0e 	strpl	r1, [lr, #-2830]	; 0xfffff4f2
 228:	10011117 	andne	r1, r1, r7, lsl r1
 22c:	02000017 	andeq	r0, r0, #23
 230:	0b0b0024 	bleq	2c02c8 <rumboot_platform_stack_area_end+0x2412c8>
 234:	08030b3e 	stmdaeq	r3, {r1, r2, r3, r4, r5, r8, r9, fp}
 238:	16030000 	strne	r0, [r3], -r0
 23c:	3a0e0300 	bcc	380e44 <rumboot_platform_stack_area_end+0x301e44>
 240:	490b3b0b 	stmdbmi	fp, {r0, r1, r3, r8, r9, fp, ip, sp}
 244:	04000013 	streq	r0, [r0], #-19	; 0xffffffed
 248:	0b0b0024 	bleq	2c02e0 <rumboot_platform_stack_area_end+0x2412e0>
 24c:	0e030b3e 	vmoveq.16	d3[0], r0
 250:	16050000 	strne	r0, [r5], -r0
 254:	3a0e0300 	bcc	380e5c <rumboot_platform_stack_area_end+0x301e5c>
 258:	49053b0b 	stmdbmi	r5, {r0, r1, r3, r8, r9, fp, ip, sp}
 25c:	06000013 			; <UNDEFINED> instruction: 0x06000013
 260:	0b0b0117 	bleq	2c06c4 <rumboot_platform_stack_area_end+0x2416c4>
 264:	0b3b0b3a 	bleq	ec2f54 <rumboot_platform_stack_area_end+0xe43f54>
 268:	00001301 	andeq	r1, r0, r1, lsl #6
 26c:	03000d07 	movweq	r0, #3335	; 0xd07
 270:	3b0b3a0e 	blcc	2ceab0 <rumboot_platform_stack_area_end+0x24fab0>
 274:	0013490b 	andseq	r4, r3, fp, lsl #18
 278:	01010800 	tsteq	r1, r0, lsl #16
 27c:	13011349 	movwne	r1, #4937	; 0x1349
 280:	21090000 	mrscs	r0, (UNDEF: 9)
 284:	2f134900 	svccs	0x00134900
 288:	0a00000b 	beq	2bc <__aeabi_uidivmod+0x18>
 28c:	0b0b0113 	bleq	2c06e0 <rumboot_platform_stack_area_end+0x2416e0>
 290:	0b3b0b3a 	bleq	ec2f80 <rumboot_platform_stack_area_end+0xe43f80>
 294:	00001301 	andeq	r1, r0, r1, lsl #6
 298:	03000d0b 	movweq	r0, #3339	; 0xd0b
 29c:	3b0b3a0e 	blcc	2ceadc <rumboot_platform_stack_area_end+0x24fadc>
 2a0:	3813490b 	ldmdacc	r3, {r0, r1, r3, r8, fp, lr}
 2a4:	0c00000b 	stceq	0, cr0, [r0], {11}
 2a8:	0b0b000f 	bleq	2c02ec <rumboot_platform_stack_area_end+0x2412ec>
 2ac:	0f0d0000 	svceq	0x000d0000
 2b0:	490b0b00 	stmdbmi	fp, {r8, r9, fp}
 2b4:	0e000013 	mcreq	0, 0, r0, cr0, cr3, {0}
 2b8:	13490026 	movtne	r0, #36902	; 0x9026
 2bc:	130f0000 	movwne	r0, #61440	; 0xf000
 2c0:	0b0e0301 	bleq	380ecc <rumboot_platform_stack_area_end+0x301ecc>
 2c4:	3b0b3a0b 	blcc	2ceaf8 <rumboot_platform_stack_area_end+0x24faf8>
 2c8:	0013010b 	andseq	r0, r3, fp, lsl #2
 2cc:	000d1000 	andeq	r1, sp, r0
 2d0:	0b3a0803 	bleq	e822e4 <rumboot_platform_stack_area_end+0xe032e4>
 2d4:	13490b3b 	movtne	r0, #39739	; 0x9b3b
 2d8:	00000b38 	andeq	r0, r0, r8, lsr fp
 2dc:	03011311 	movweq	r1, #4881	; 0x1311
 2e0:	3a050b0e 	bcc	142f20 <rumboot_platform_stack_area_end+0xc3f20>
 2e4:	010b3b0b 	tsteq	fp, fp, lsl #22
 2e8:	12000013 	andne	r0, r0, #19
 2ec:	0e03000d 	cdpeq	0, 0, cr0, cr3, cr13, {0}
 2f0:	0b3b0b3a 	bleq	ec2fe0 <rumboot_platform_stack_area_end+0xe43fe0>
 2f4:	05381349 	ldreq	r1, [r8, #-841]!	; 0xfffffcb7
 2f8:	15130000 	ldrne	r0, [r3, #-0]
 2fc:	00192700 	andseq	r2, r9, r0, lsl #14
 300:	01151400 	tsteq	r5, r0, lsl #8
 304:	13491927 	movtne	r1, #39207	; 0x9927
 308:	00001301 	andeq	r1, r0, r1, lsl #6
 30c:	49000515 	stmdbmi	r0, {r0, r2, r4, r8, sl}
 310:	16000013 			; <UNDEFINED> instruction: 0x16000013
 314:	0e030113 	mcreq	1, 0, r0, cr3, cr3, {0}
 318:	0b3a050b 	bleq	e8174c <rumboot_platform_stack_area_end+0xe0274c>
 31c:	1301053b 	movwne	r0, #5435	; 0x153b
 320:	0d170000 	ldceq	0, cr0, [r7, #-0]
 324:	3a0e0300 	bcc	380f2c <rumboot_platform_stack_area_end+0x301f2c>
 328:	49053b0b 	stmdbmi	r5, {r0, r1, r3, r8, r9, fp, ip, sp}
 32c:	000b3813 	andeq	r3, fp, r3, lsl r8
 330:	000d1800 	andeq	r1, sp, r0, lsl #16
 334:	0b3a0e03 	bleq	e83b48 <rumboot_platform_stack_area_end+0xe04b48>
 338:	1349053b 	movtne	r0, #38203	; 0x953b
 33c:	00000538 	andeq	r0, r0, r8, lsr r5
 340:	03011319 	movweq	r1, #4889	; 0x1319
 344:	3a0b0b0e 	bcc	2c2f84 <rumboot_platform_stack_area_end+0x243f84>
 348:	01053b0b 	tsteq	r5, fp, lsl #22
 34c:	1a000013 	bne	3a0 <__aeabi_idivmod>
 350:	0b0b0113 	bleq	2c07a4 <rumboot_platform_stack_area_end+0x2417a4>
 354:	053b0b3a 	ldreq	r0, [fp, #-2874]!	; 0xfffff4c6
 358:	00001301 	andeq	r1, r0, r1, lsl #6
 35c:	0b01171b 	bleq	45fd0 <rumboot_platform_spl_start+0x5fd0>
 360:	3b0b3a0b 	blcc	2ceb94 <rumboot_platform_stack_area_end+0x24fb94>
 364:	00130105 	andseq	r0, r3, r5, lsl #2
 368:	000d1c00 	andeq	r1, sp, r0, lsl #24
 36c:	0b3a0e03 	bleq	e83b80 <rumboot_platform_stack_area_end+0xe04b80>
 370:	1349053b 	movtne	r0, #38203	; 0x953b
 374:	151d0000 	ldrne	r0, [sp, #-0]
 378:	01192701 	tsteq	r9, r1, lsl #14
 37c:	1e000013 	mcrne	0, 0, r0, cr0, cr3, {0}
 380:	0e030034 	mcreq	0, 0, r0, cr3, cr4, {1}
 384:	053b0b3a 	ldreq	r0, [fp, #-2874]!	; 0xfffff4c6
 388:	193f1349 	ldmdbne	pc!, {r0, r3, r6, r8, r9, ip}	; <UNPREDICTABLE>
 38c:	0000193c 	andeq	r1, r0, ip, lsr r9
 390:	0300341f 	movweq	r3, #1055	; 0x41f
 394:	3b0b3a0e 	blcc	2cebd4 <rumboot_platform_stack_area_end+0x24fbd4>
 398:	3f13490b 	svccc	0x0013490b
 39c:	00193c19 	andseq	r3, r9, r9, lsl ip
 3a0:	012e2000 			; <UNDEFINED> instruction: 0x012e2000
 3a4:	0e03193f 			; <UNDEFINED> instruction: 0x0e03193f
 3a8:	0b3b0b3a 	bleq	ec3098 <rumboot_platform_stack_area_end+0xe44098>
 3ac:	13491927 	movtne	r1, #39207	; 0x9927
 3b0:	06120111 			; <UNDEFINED> instruction: 0x06120111
 3b4:	42971840 	addsmi	r1, r7, #64, 16	; 0x400000
 3b8:	21000019 	tstcs	r0, r9, lsl r0
 3bc:	08030005 	stmdaeq	r3, {r0, r2}
 3c0:	0b3b0b3a 	bleq	ec30b0 <rumboot_platform_stack_area_end+0xe440b0>
 3c4:	18021349 	stmdane	r2, {r0, r3, r6, r8, r9, ip}
 3c8:	05220000 	streq	r0, [r2, #-0]!
 3cc:	3a080300 	bcc	200fd4 <rumboot_platform_stack_area_end+0x181fd4>
 3d0:	490b3b0b 	stmdbmi	fp, {r0, r1, r3, r8, r9, fp, ip, sp}
 3d4:	00170213 	andseq	r0, r7, r3, lsl r2
 3d8:	00342300 	eorseq	r2, r4, r0, lsl #6
 3dc:	0b3a0803 	bleq	e823f0 <rumboot_platform_stack_area_end+0xe033f0>
 3e0:	13490b3b 	movtne	r0, #39739	; 0x9b3b
 3e4:	00001702 	andeq	r1, r0, r2, lsl #14
	...

Disassembly of section .debug_aranges:

00000000 <.debug_aranges>:
   0:	0000001c 	andeq	r0, r0, ip, lsl r0
   4:	00000002 	andeq	r0, r0, r2
   8:	00040000 	andeq	r0, r4, r0
   c:	00000000 	andeq	r0, r0, r0
  10:	000001fc 	strdeq	r0, [r0], -ip
  14:	000000c8 	andeq	r0, r0, r8, asr #1
	...
  20:	0000001c 	andeq	r0, r0, ip, lsl r0
  24:	010e0002 	tsteq	lr, r2
  28:	00040000 	andeq	r0, r4, r0
  2c:	00000000 	andeq	r0, r0, r0
  30:	000002c4 	andeq	r0, r0, r4, asr #5
  34:	000000fc 	strdeq	r0, [r0], -ip
	...
  40:	0000001c 	andeq	r0, r0, ip, lsl r0
  44:	021c0002 	andseq	r0, ip, #2
  48:	00040000 	andeq	r0, r4, r0
  4c:	00000000 	andeq	r0, r0, r0
  50:	000003c0 	andeq	r0, r0, r0, asr #7
  54:	00000004 	andeq	r0, r0, r4
	...
  60:	0000001c 	andeq	r0, r0, ip, lsl r0
  64:	032a0002 			; <UNDEFINED> instruction: 0x032a0002
  68:	00040000 	andeq	r0, r4, r0
  6c:	00000000 	andeq	r0, r0, r0
  70:	000039a0 	andeq	r3, r0, r0, lsr #19
  74:	00000020 	andeq	r0, r0, r0, lsr #32
	...
  80:	0000001c 	andeq	r0, r0, ip, lsl r0
  84:	0c430002 	mcrreq	0, 0, r0, r3, cr2
  88:	00040000 	andeq	r0, r4, r0
  8c:	00000000 	andeq	r0, r0, r0
  90:	000039c0 	andeq	r3, r0, r0, asr #19
  94:	0000001c 	andeq	r0, r0, ip, lsl r0
	...

Disassembly of section .debug_loc:

00000000 <.debug_loc>:
   0:	000039a0 	andeq	r3, r0, r0, lsr #19
   4:	000039a8 	andeq	r3, r0, r8, lsr #19
   8:	a8510001 	ldmdage	r1, {r0}^
   c:	c0000039 	andgt	r0, r0, r9, lsr r0
  10:	04000039 	streq	r0, [r0], #-57	; 0xffffffc7
  14:	5101f300 	mrspl	pc, SP_irq	; <UNPREDICTABLE>
  18:	0000009f 	muleq	r0, pc, r0	; <UNPREDICTABLE>
  1c:	00000000 	andeq	r0, r0, r0
  20:	0039a000 	eorseq	sl, r9, r0
  24:	0039a800 	eorseq	sl, r9, r0, lsl #16
  28:	52000100 	andpl	r0, r0, #0, 2
  2c:	000039a8 	andeq	r3, r0, r8, lsr #19
  30:	000039b8 			; <UNDEFINED> instruction: 0x000039b8
  34:	0071000c 	rsbseq	r0, r1, ip
  38:	5201f320 	andpl	pc, r1, #32, 6	; 0x80000000
  3c:	5101f322 	tstpl	r1, r2, lsr #6	; <UNPREDICTABLE>
  40:	39b89f22 	ldmibcc	r8!, {r1, r5, r8, r9, sl, fp, ip, pc}
  44:	39c00000 	stmibcc	r0, {}^	; <UNPREDICTABLE>
  48:	000b0000 	andeq	r0, fp, r0
  4c:	715101f3 	ldrshvc	r0, [r1, #-19]	; 0xffffffed
  50:	01f31c00 	mvnseq	r1, r0, lsl #24
  54:	009f2252 	addseq	r2, pc, r2, asr r2	; <UNPREDICTABLE>
  58:	00000000 	andeq	r0, r0, r0
  5c:	a0000000 	andge	r0, r0, r0
  60:	a8000039 	stmdage	r0, {r0, r3, r4, r5}
  64:	01000039 	tsteq	r0, r9, lsr r0
  68:	00005000 	andeq	r5, r0, r0
  6c:	00000000 	andeq	r0, r0, r0
  70:	39a00000 	stmibcc	r0!, {}	; <UNPREDICTABLE>
  74:	39b80000 	ldmibcc	r8!, {}	; <UNPREDICTABLE>
  78:	00010000 	andeq	r0, r1, r0
  7c:	0039b851 	eorseq	fp, r9, r1, asr r8
  80:	0039c000 	eorseq	ip, r9, r0
  84:	71000300 	mrsvc	r0, LR_irq
  88:	00009f7f 	andeq	r9, r0, pc, ror pc
  8c:	00000000 	andeq	r0, r0, r0
  90:	39c00000 	stmibcc	r0, {}^	; <UNPREDICTABLE>
  94:	39c40000 	stmibcc	r4, {}^	; <UNPREDICTABLE>
  98:	00010000 	andeq	r0, r1, r0
  9c:	0039c452 	eorseq	ip, r9, r2, asr r4
  a0:	0039c800 	eorseq	ip, r9, r0, lsl #16
  a4:	f3000400 	vshl.u8	d0, d0, d0
  a8:	009f5201 	addseq	r5, pc, r1, lsl #4
  ac:	00000000 	andeq	r0, r0, r0
  b0:	c0000000 	andgt	r0, r0, r0
  b4:	c8000039 	stmdagt	r0, {r0, r3, r4, r5}
  b8:	01000039 	tsteq	r0, r9, lsr r0
  bc:	39c85000 	stmibcc	r8, {ip, lr}^
  c0:	39d80000 	ldmibcc	r8, {}^	; <UNPREDICTABLE>
  c4:	00010000 	andeq	r0, r1, r0
  c8:	0039d853 	eorseq	sp, r9, r3, asr r8
  cc:	0039dc00 	eorseq	sp, r9, r0, lsl #24
  d0:	73000300 	movwvc	r0, #768	; 0x300
  d4:	00009f7f 	andeq	r9, r0, pc, ror pc
  d8:	00000000 	andeq	r0, r0, r0
	...

Disassembly of section .debug_ranges:

00000000 <.debug_ranges>:
   0:	000039a0 	andeq	r3, r0, r0, lsr #19
   4:	000039c0 	andeq	r3, r0, r0, asr #19
	...
  10:	000039c0 	andeq	r3, r0, r0, asr #19
  14:	000039dc 	ldrdeq	r3, [r0], -ip
	...

Disassembly of section .debug_str:

00000000 <.debug_str>:
   0:	6f73645f 	svcvs	0x0073645f
   4:	6e61685f 	mcrvs	8, 3, r6, cr1, cr15, {2}
   8:	00656c64 	rsbeq	r6, r5, r4, ror #24
   c:	7a69735f 	bvc	1a5cd90 <rumboot_platform_stack_area_end+0x19ddd90>
  10:	73640065 	cmnvc	r4, #101	; 0x65
  14:	73003074 	movwvc	r3, #116	; 0x74
  18:	5f657a69 	svcpl	0x00657a69
  1c:	725f0074 	subsvc	r0, pc, #116	; 0x74
  20:	34646e61 	strbtcc	r6, [r4], #-3681	; 0xfffff19f
  24:	655f0038 	ldrbvs	r0, [pc, #-56]	; fffffff4 <rumboot_platform_stack_area_end+0xfff80ff4>
  28:	6772656d 	ldrbvs	r6, [r2, -sp, ror #10]!
  2c:	79636e65 	stmdbvc	r3!, {r0, r2, r5, r6, r9, sl, fp, sp, lr}^
  30:	61645f00 	cmnvs	r4, r0, lsl #30
  34:	5f006174 	svcpl	0x00006174
  38:	74726377 	ldrbtvc	r6, [r2], #-887	; 0xfffffc89
  3c:	5f626d6f 	svcpl	0x00626d6f
  40:	74617473 	strbtvc	r7, [r1], #-1139	; 0xfffffb8d
  44:	775f0065 	ldrbvc	r0, [pc, -r5, rrx]
  48:	74727363 	ldrbtvc	r7, [r2], #-867	; 0xfffffc9d
  4c:	73626d6f 	cmnvc	r2, #7104	; 0x1bc0
  50:	6174735f 	cmnvs	r4, pc, asr r3
  54:	6c006574 	cfstr32vs	mvfx6, [r0], {116}	; 0x74
  58:	20676e6f 	rsbcs	r6, r7, pc, ror #28
  5c:	676e6f6c 	strbvs	r6, [lr, -ip, ror #30]!
  60:	736e7520 	cmnvc	lr, #32, 10	; 0x8000000
  64:	656e6769 	strbvs	r6, [lr, #-1897]!	; 0xfffff897
  68:	6e692064 	cdpvs	0, 6, cr2, cr9, cr4, {3}
  6c:	6c5f0074 	mrrcvs	0, 7, r0, pc, cr4	; <UNPREDICTABLE>
  70:	69736662 	ldmdbvs	r3!, {r1, r5, r6, r9, sl, sp, lr}^
  74:	5f00657a 	svcpl	0x0000657a
  78:	636f6c5f 	cmnvs	pc, #24320	; 0x5f00
  7c:	5f656c61 	svcpl	0x00656c61
  80:	6d5f0074 	ldclvs	0, cr0, [pc, #-464]	; fffffeb8 <rumboot_platform_stack_area_end+0xfff80eb8>
  84:	6f747262 	svcvs	0x00747262
  88:	735f6377 	cmpvc	pc, #-603979775	; 0xdc000001
  8c:	65746174 	ldrbvs	r6, [r4, #-372]!	; 0xfffffe8c
  90:	63775f00 	cmnvs	r7, #0, 30
  94:	626d6f74 	rsbvs	r6, sp, #116, 30	; 0x1d0
  98:	6174735f 	cmnvs	r4, pc, asr r3
  9c:	5f006574 	svcpl	0x00006574
  a0:	5f6d745f 	svcpl	0x006d745f
  a4:	00636573 	rsbeq	r6, r3, r3, ror r5
  a8:	676e6f6c 	strbvs	r6, [lr, -ip, ror #30]!
  ac:	6e6f6c20 	cdpvs	12, 6, cr6, cr15, cr0, {1}
  b0:	6e692067 	cdpvs	0, 6, cr2, cr9, cr7, {3}
  b4:	755f0074 	ldrbvc	r0, [pc, #-116]	; 48 <swi_handler+0x10>
  b8:	00667562 	rsbeq	r7, r6, r2, ror #10
  bc:	7361625f 	cmnvc	r1, #-268435451	; 0xf0000005
  c0:	5f5f0065 	svcpl	0x005f0065
  c4:	685f6d74 	ldmdavs	pc, {r2, r4, r5, r6, r8, sl, fp, sp, lr}^	; <UNPREDICTABLE>
  c8:	0072756f 	rsbseq	r7, r2, pc, ror #10
  cc:	66735f5f 	uhsaxvs	r5, r3, pc	; <UNPREDICTABLE>
  d0:	6e6f5f00 	cdpvs	15, 6, cr5, cr15, cr0, {0}
  d4:	6978655f 	ldmdbvs	r8!, {r0, r1, r2, r3, r4, r6, r8, sl, sp, lr}^
  d8:	72615f74 	rsbvc	r5, r1, #116, 30	; 0x1d0
  dc:	5f007367 	svcpl	0x00007367
  e0:	6b6f6f63 	blvs	1bdbe74 <rumboot_platform_stack_area_end+0x1b5ce74>
  e4:	5f006569 	svcpl	0x00006569
  e8:	6c67735f 	stclvs	3, cr7, [r7], #-380	; 0xfffffe84
  ec:	5f006575 	svcpl	0x00006575
  f0:	67616c66 	strbvs	r6, [r1, -r6, ror #24]!
  f4:	695f0073 	ldmdbvs	pc, {r0, r1, r4, r5, r6}^	; <UNPREDICTABLE>
  f8:	78635f73 	stmdavc	r3!, {r0, r1, r4, r5, r6, r8, r9, sl, fp, ip, lr}^
  fc:	735f0061 	cmpvc	pc, #97	; 0x61
 100:	6e696474 	mcrvs	4, 3, r6, cr9, cr4, {3}
 104:	6c625f00 	stclvs	15, cr5, [r2], #-0
 108:	7a69736b 	bvc	1a5cebc <rumboot_platform_stack_area_end+0x19ddebc>
 10c:	635f0065 	cmpvs	pc, #101	; 0x65
 110:	75627476 	strbvc	r7, [r2, #-1142]!	; 0xfffffb8a
 114:	6f5f0066 	svcvs	0x005f0066
 118:	65736666 	ldrbvs	r6, [r3, #-1638]!	; 0xfffff99a
 11c:	6d5f0074 	ldclvs	0, cr0, [pc, #-464]	; ffffff54 <rumboot_platform_stack_area_end+0xfff80f54>
 120:	74727362 	ldrbtvc	r7, [r2], #-866	; 0xfffffc9e
 124:	7363776f 	cmnvc	r3, #29097984	; 0x1bc0000
 128:	6174735f 	cmnvs	r4, pc, asr r3
 12c:	5f006574 	svcpl	0x00006574
 130:	6c72626d 	lfmvs	f6, 2, [r2], #-436	; 0xfffffe4c
 134:	735f6e65 	cmpvc	pc, #1616	; 0x650
 138:	65746174 	ldrbvs	r6, [r4, #-372]!	; 0xfffffe8c
 13c:	6e665f00 	cdpvs	15, 6, cr5, cr6, cr0, {0}
 140:	73677261 	cmnvc	r7, #268435462	; 0x10000006
 144:	6e665f00 	cdpvs	15, 6, cr5, cr6, cr0, {0}
 148:	665f0073 			; <UNDEFINED> instruction: 0x665f0073
 14c:	6b636f6c 	blvs	18dbf04 <rumboot_platform_stack_area_end+0x185cf04>
 150:	5f00745f 	svcpl	0x0000745f
 154:	65647473 	strbvs	r7, [r4, #-1139]!	; 0xfffffb8d
 158:	47007272 	smlsdxmi	r0, r2, r2, r7
 15c:	4320554e 			; <UNDEFINED> instruction: 0x4320554e
 160:	36203131 			; <UNDEFINED> instruction: 0x36203131
 164:	302e332e 	eorcc	r3, lr, lr, lsr #6
 168:	6c6d2d20 	stclvs	13, cr2, [sp], #-128	; 0xffffff80
 16c:	6c747469 	cfldrdvs	mvd7, [r4], #-420	; 0xfffffe5c
 170:	6e652d65 	cdpvs	13, 6, cr2, cr5, cr5, {3}
 174:	6e616964 	vnmulvs.f16	s13, s2, s9	; <UNPREDICTABLE>
 178:	636d2d20 	cmnvs	sp, #32, 26	; 0x800
 17c:	633d7570 	teqvs	sp, #112, 10	; 0x1c000000
 180:	6574726f 	ldrbvs	r7, [r4, #-623]!	; 0xfffffd91
 184:	35612d78 	strbcc	r2, [r1, #-3448]!	; 0xfffff288
 188:	666d2d20 	strbtvs	r2, [sp], -r0, lsr #26
 18c:	6e3d7570 	mrcvs	5, 1, r7, cr13, cr0, {3}
 190:	206e6f65 	rsbcs	r6, lr, r5, ror #30
 194:	6c666d2d 	stclvs	13, cr6, [r6], #-180	; 0xffffff4c
 198:	2d74616f 	ldfcse	f6, [r4, #-444]!	; 0xfffffe44
 19c:	3d696261 	sfmcc	f6, 2, [r9, #-388]!	; 0xfffffe7c
 1a0:	64726168 	ldrbtvs	r6, [r2], #-360	; 0xfffffe98
 1a4:	20672d20 	rsbcs	r2, r7, r0, lsr #26
 1a8:	20734f2d 	rsbscs	r4, r3, sp, lsr #30
 1ac:	20734f2d 	rsbscs	r4, r3, sp, lsr #30
 1b0:	6f6e662d 	svcvs	0x006e662d
 1b4:	6975622d 	ldmdbvs	r5!, {r0, r2, r3, r5, r9, sp, lr}^
 1b8:	6e69746c 	cdpvs	4, 6, cr7, cr9, cr12, {3}
 1bc:	66662d20 	strbtvs	r2, [r6], -r0, lsr #26
 1c0:	74636e75 	strbtvc	r6, [r3], #-3701	; 0xfffff18b
 1c4:	2d6e6f69 	stclcs	15, cr6, [lr, #-420]!	; 0xfffffe5c
 1c8:	74636573 	strbtvc	r6, [r3], #-1395	; 0xfffffa8d
 1cc:	736e6f69 	cmnvc	lr, #420	; 0x1a4
 1d0:	64662d20 	strbtvs	r2, [r6], #-3360	; 0xfffff2e0
 1d4:	2d617461 	cfstrdcs	mvd7, [r1, #-388]!	; 0xfffffe7c
 1d8:	74636573 	strbtvc	r6, [r3], #-1395	; 0xfffffa8d
 1dc:	736e6f69 	cmnvc	lr, #420	; 0x1a4
 1e0:	61675f00 	cmnvs	r7, r0, lsl #30
 1e4:	5f616d6d 	svcpl	0x00616d6d
 1e8:	6e676973 			; <UNDEFINED> instruction: 0x6e676973
 1ec:	006d6167 	rsbeq	r6, sp, r7, ror #2
 1f0:	65766173 	ldrbvs	r6, [r6, #-371]!	; 0xfffffe8d
 1f4:	65725f00 	ldrbvs	r5, [r2, #-3840]!	; 0xfffff100
 1f8:	5f006461 	svcpl	0x00006461
 1fc:	75736572 	ldrbvc	r6, [r3, #-1394]!	; 0xfffffa8e
 200:	6b5f746c 	blvs	17dd3b8 <rumboot_platform_stack_area_end+0x175e3b8>
 204:	745f5f00 	ldrbvc	r5, [pc], #-3840	; 20c <__udivsi3+0x10>
 208:	5f5f006d 	svcpl	0x005f006d
 20c:	62686377 	rsbvs	r6, r8, #-603979775	; 0xdc000001
 210:	74735f00 	ldrbtvc	r5, [r3], #-3840	; 0xfffff100
 214:	74756f64 	ldrbtvc	r6, [r5], #-3940	; 0xfffff09c
 218:	76635f00 	strbtvc	r5, [r3], -r0, lsl #30
 21c:	6e656c74 	mcrvs	12, 3, r6, cr5, cr4, {3}
 220:	69665f00 	stmdbvs	r6!, {r8, r9, sl, fp, ip, lr}^
 224:	5f00656c 	svcpl	0x0000656c
 228:	626f696e 	rsbvs	r6, pc, #1802240	; 0x1b8000
 22c:	68730073 	ldmdavs	r3!, {r0, r1, r4, r5, r6}^
 230:	2074726f 	rsbscs	r7, r4, pc, ror #4
 234:	69736e75 	ldmdbvs	r3!, {r0, r2, r4, r5, r6, r9, sl, fp, sp, lr}^
 238:	64656e67 	strbtvs	r6, [r5], #-3687	; 0xfffff199
 23c:	746e6920 	strbtvc	r6, [lr], #-2336	; 0xfffff6e0
 240:	74615f00 	strbtvc	r5, [r1], #-3840	; 0xfffff100
 244:	74697865 	strbtvc	r7, [r9], #-2149	; 0xfffff79b
 248:	735f0030 	cmpvc	pc, #48	; 0x30
 24c:	616e6769 	cmnvs	lr, r9, ror #14
 250:	75625f6c 	strbvc	r5, [r2, #-3948]!	; 0xfffff094
 254:	615f0066 	cmpvs	pc, r6, rrx
 258:	69746373 	ldmdbvs	r4!, {r0, r1, r4, r5, r6, r8, r9, sp, lr}^
 25c:	625f656d 	subsvs	r6, pc, #457179136	; 0x1b400000
 260:	5f006675 	svcpl	0x00006675
 264:	75736572 	ldrbvc	r6, [r3, #-1394]!	; 0xfffffa8e
 268:	5f00746c 	svcpl	0x0000746c
 26c:	6863775f 	stmdavs	r3!, {r0, r1, r2, r3, r4, r6, r8, r9, sl, ip, sp, lr}^
 270:	6d656d00 	stclvs	13, cr6, [r5, #-0]
 274:	00797063 	rsbseq	r7, r9, r3, rrx
 278:	746e6977 	strbtvc	r6, [lr], #-2423	; 0xfffff689
 27c:	5f00745f 	svcpl	0x0000745f
 280:	6b636f6c 	blvs	18dc038 <rumboot_platform_stack_area_end+0x185d038>
 284:	6c665f00 	stclvs	15, cr5, [r6], #-0
 288:	32736761 	rsbscc	r6, r3, #25427968	; 0x1840000
 28c:	72775f00 	rsbsvc	r5, r7, #0, 30
 290:	00657469 	rsbeq	r7, r5, r9, ror #8
 294:	6d745f5f 	ldclvs	15, cr5, [r4, #-380]!	; 0xfffffe84
 298:	6165795f 	cmnvs	r5, pc, asr r9
 29c:	69730072 	ldmdbvs	r3!, {r1, r4, r5, r6}^
 2a0:	7974657a 	ldmdbvc	r4!, {r1, r3, r4, r5, r6, r8, sl, sp, lr}^
 2a4:	6c006570 	cfstr32vs	mvfx6, [r0], {112}	; 0x70
 2a8:	20676e6f 	rsbcs	r6, r7, pc, ror #28
 2ac:	62756f64 	rsbsvs	r6, r5, #100, 30	; 0x190
 2b0:	5f00656c 	svcpl	0x0000656c
 2b4:	7478656e 	ldrbtvc	r6, [r8], #-1390	; 0xfffffa92
 2b8:	5f5f0066 	svcpl	0x005f0066
 2bc:	6d5f6d74 	ldclvs	13, cr6, [pc, #-464]	; f4 <rumboot_entry_point+0x28>
 2c0:	5f006e6f 	svcpl	0x00006e6f
 2c4:	78657461 	stmdavc	r5!, {r0, r5, r6, sl, ip, sp, lr}^
 2c8:	5f007469 	svcpl	0x00007469
 2cc:	6964735f 	stmdbvs	r4!, {r0, r1, r2, r3, r4, r6, r8, r9, ip, sp, lr}^
 2d0:	696e6964 	stmdbvs	lr!, {r2, r5, r6, r8, fp, sp, lr}^
 2d4:	6f5f0074 	svcvs	0x005f0074
 2d8:	745f6666 	ldrbvc	r6, [pc], #-1638	; 2e0 <.divsi3_skip_div0_test+0x14>
 2dc:	72665f00 	rsbvc	r5, r6, #0, 30
 2e0:	696c6565 	stmdbvs	ip!, {r0, r2, r5, r6, r8, sl, sp, lr}^
 2e4:	5f007473 	svcpl	0x00007473
 2e8:	4b434f4c 	blmi	10d4020 <rumboot_platform_stack_area_end+0x1055020>
 2ec:	4345525f 	movtmi	r5, #21087	; 0x525f
 2f0:	49535255 	ldmdbmi	r3, {r0, r2, r4, r6, r9, ip, lr}^
 2f4:	545f4556 	ldrbpl	r4, [pc], #-1366	; 2fc <.divsi3_skip_div0_test+0x30>
 2f8:	63727300 	cmnvs	r2, #0, 6
 2fc:	6e750030 	mrcvs	0, 3, r0, cr5, cr0, {1}
 300:	6e676973 			; <UNDEFINED> instruction: 0x6e676973
 304:	63206465 			; <UNDEFINED> instruction: 0x63206465
 308:	00726168 	rsbseq	r6, r2, r8, ror #2
 30c:	77656e5f 			; <UNDEFINED> instruction: 0x77656e5f
 310:	6f682f00 	svcvs	0x00682f00
 314:	6e2f656d 	cfsh64vs	mvdx6, mvdx15, #61
 318:	6f726365 	svcvs	0x00726365
 31c:	746e616d 	strbtvc	r6, [lr], #-365	; 0xfffffe93
 320:	666f532f 	strbtvs	r5, [pc], -pc, lsr #6
 324:	72617774 	rsbvc	r7, r1, #116, 14	; 0x1d00000
 328:	6f742f65 	svcvs	0x00742f65
 32c:	68636c6f 	stmdavs	r3!, {r0, r1, r2, r3, r5, r6, sl, fp, sp, lr}^
 330:	736e6961 	cmnvc	lr, #1589248	; 0x184000
 334:	726f632f 	rsbvc	r6, pc, #-1140850688	; 0xbc000000
 338:	2d786574 	cfldr64cs	mvdx6, [r8, #-464]!	; 0xfffffe30
 33c:	622d3561 	eorvs	r3, sp, #406847488	; 0x18400000
 340:	6d657261 	sfmvs	f7, 2, [r5, #-388]!	; 0xfffffe7c
 344:	6c617465 	cfstrdvs	mvd7, [r1], #-404	; 0xfffffe6c
 348:	75622e2f 	strbvc	r2, [r2, #-3631]!	; 0xfffff1d1
 34c:	2f646c69 	svccs	0x00646c69
 350:	2f637273 	svccs	0x00637273
 354:	6c77656e 	cfldr64vs	mvdx6, [r7], #-440	; 0xfffffe48
 358:	322d6269 	eorcc	r6, sp, #-1879048186	; 0x90000006
 35c:	302e352e 	eorcc	r3, lr, lr, lsr #10
 360:	3130322e 	teqcc	r0, lr, lsr #4
 364:	31353037 	teqcc	r5, r7, lsr r0
 368:	656e2f39 	strbvs	r2, [lr, #-3897]!	; 0xfffff0c7
 36c:	62696c77 	rsbvs	r6, r9, #30464	; 0x7700
 370:	62696c2f 	rsbvs	r6, r9, #12032	; 0x2f00
 374:	616d2f63 	cmnvs	sp, r3, ror #30
 378:	6e696863 	cdpvs	8, 6, cr6, cr9, cr3, {3}
 37c:	72612f65 	rsbvc	r2, r1, #404	; 0x194
 380:	656d2f6d 	strbvs	r2, [sp, #-3949]!	; 0xfffff093
 384:	7970636d 	ldmdbvc	r0!, {r0, r2, r3, r5, r6, r8, r9, sp, lr}^
 388:	7574732d 	ldrbvc	r7, [r4, #-813]!	; 0xfffffcd3
 38c:	00632e62 	rsbeq	r2, r3, r2, ror #28
 390:	655f685f 	ldrbvs	r6, [pc, #-2143]	; fffffb39 <rumboot_platform_stack_area_end+0xfff80b39>
 394:	6f6e7272 	svcvs	0x006e7272
 398:	6f687300 	svcvs	0x00687300
 39c:	69207472 	stmdbvs	r0!, {r1, r4, r5, r6, sl, ip, sp, lr}
 3a0:	5f00746e 	svcpl	0x0000746e
 3a4:	5f6d745f 	svcpl	0x006d745f
 3a8:	79616479 	stmdbvc	r1!, {r0, r3, r4, r5, r6, sl, sp, lr}^
 3ac:	735f5f00 	cmpvc	pc, #0, 30
 3b0:	00667562 	rsbeq	r7, r6, r2, ror #10
 3b4:	626f695f 	rsbvs	r6, pc, #1556480	; 0x17c000
 3b8:	5f5f0073 	svcpl	0x005f0073
 3bc:	454c4946 	strbmi	r4, [ip, #-2374]	; 0xfffff6ba
 3c0:	626d5f00 	rsbvs	r5, sp, #0, 30
 3c4:	74617473 	strbtvc	r7, [r1], #-1139	; 0xfffffb8d
 3c8:	00745f65 	rsbseq	r5, r4, r5, ror #30
 3cc:	46735f5f 	uhsaxmi	r5, r3, pc	; <UNPREDICTABLE>
 3d0:	00454c49 	subeq	r4, r5, r9, asr #24
 3d4:	73626d5f 	cmnvc	r2, #6080	; 0x17c0
 3d8:	65746174 	ldrbvs	r6, [r4, #-372]!	; 0xfffffe8c
 3dc:	61725f00 	cmnvs	r2, r0, lsl #30
 3e0:	6e5f646e 	cdpvs	4, 5, cr6, cr15, cr14, {3}
 3e4:	00747865 	rsbseq	r7, r4, r5, ror #16
 3e8:	6c626d5f 	stclvs	13, cr6, [r2], #-380	; 0xfffffe84
 3ec:	735f6e65 	cmpvc	pc, #1616	; 0x650
 3f0:	65746174 	ldrbvs	r6, [r4, #-372]!	; 0xfffffe8c
 3f4:	6e695f00 	cdpvs	15, 6, cr5, cr9, cr0, {0}
 3f8:	695f0063 	ldmdbvs	pc, {r0, r1, r5, r6}^	; <UNPREDICTABLE>
 3fc:	5f00646e 	svcpl	0x0000646e
 400:	656c635f 	strbvs	r6, [ip, #-863]!	; 0xfffffca1
 404:	70756e61 	rsbsvc	r6, r5, r1, ror #28
 408:	6e755f00 	cdpvs	15, 7, cr5, cr5, cr0, {0}
 40c:	63657073 	cmnvs	r5, #115	; 0x73
 410:	65696669 	strbvs	r6, [r9, #-1641]!	; 0xfffff997
 414:	6f6c5f64 	svcvs	0x006c5f64
 418:	656c6163 	strbvs	r6, [ip, #-355]!	; 0xfffffe9d
 41c:	666e695f 			; <UNDEFINED> instruction: 0x666e695f
 420:	6d5f006f 	ldclvs	0, cr0, [pc, #-444]	; 26c <__udivsi3+0x70>
 424:	64777861 	ldrbtvs	r7, [r7], #-2145	; 0xfffff79f
 428:	725f0073 	subsvc	r0, pc, #115	; 0x73
 42c:	746e6565 	strbtvc	r6, [lr], #-1381	; 0xfffffa9b
 430:	65735f00 	ldrbvs	r5, [r3, #-3840]!	; 0xfffff100
 434:	5f006465 	svcpl	0x00006465
 438:	756f635f 	strbvc	r6, [pc, #-863]!	; e1 <rumboot_entry_point+0x15>
 43c:	5f00746e 	svcpl	0x0000746e
 440:	6c61765f 	stclvs	6, cr7, [r1], #-380	; 0xfffffe84
 444:	5f006575 	svcpl	0x00006575
 448:	6b656573 	blvs	1959a1c <rumboot_platform_stack_area_end+0x18daa1c>
 44c:	70665f00 	rsbvc	r5, r6, r0, lsl #30
 450:	745f736f 	ldrbvc	r7, [pc], #-879	; 458 <hostmode_loop+0x78>
 454:	745f5f00 	ldrbvc	r5, [pc], #-3840	; 45c <hostmode_loop+0x7c>
 458:	696d5f6d 	stmdbvs	sp!, {r0, r2, r3, r5, r6, r8, r9, sl, fp, ip, lr}^
 45c:	6d5f006e 	ldclvs	0, cr0, [pc, #-440]	; 2ac <__aeabi_uidivmod+0x8>
 460:	00746c75 	rsbseq	r6, r4, r5, ror ip
 464:	7274735f 	rsbsvc	r7, r4, #2080374785	; 0x7c000001
 468:	5f6b6f74 	svcpl	0x006b6f74
 46c:	7473616c 	ldrbtvc	r6, [r3], #-364	; 0xfffffe94
 470:	6e665f00 	cdpvs	15, 6, cr5, cr6, cr0, {0}
 474:	65707974 	ldrbvs	r7, [r0, #-2420]!	; 0xfffff68c
 478:	615f0073 	cmpvs	pc, r3, ror r0	; <UNPREDICTABLE>
 47c:	5f006464 	svcpl	0x00006464
 480:	6f4c555f 	svcvs	0x004c555f
 484:	5f00676e 	svcpl	0x0000676e
 488:	64746567 	ldrbtvs	r6, [r4], #-1383	; 0xfffffa99
 48c:	5f657461 	svcpl	0x00657461
 490:	00727265 	rsbseq	r7, r2, r5, ror #4
 494:	6f6c675f 	svcvs	0x006c675f
 498:	5f6c6162 	svcpl	0x006c6162
 49c:	75706d69 	ldrbvc	r6, [r0, #-3433]!	; 0xfffff297
 4a0:	705f6572 	subsvc	r6, pc, r2, ror r5	; <UNPREDICTABLE>
 4a4:	5f007274 	svcpl	0x00007274
 4a8:	73756e75 	cmnvc	r5, #1872	; 0x750
 4ac:	725f6465 	subsvc	r6, pc, #1694498816	; 0x65000000
 4b0:	00646e61 	rsbeq	r6, r4, r1, ror #28
 4b4:	7364775f 	cmnvc	r4, #24903680	; 0x17c0000
 4b8:	745f5f00 	ldrbvc	r5, [pc], #-3840	; 4c0 <hostmode_loop+0xe0>
 4bc:	64775f6d 	ldrbtvs	r5, [r7], #-3949	; 0xfffff093
 4c0:	5f007961 	svcpl	0x00007961
 4c4:	65756c67 	ldrbvs	r6, [r5, #-3175]!	; 0xfffff399
 4c8:	6e656c00 	cdpvs	12, 6, cr6, cr5, cr0, {0}
 4cc:	6e5f0030 	mrcvs	0, 2, r0, cr15, cr0, {1}
 4d0:	6c6c616d 	stfvse	f6, [ip], #-436	; 0xfffffe4c
 4d4:	5f00636f 	svcpl	0x0000636f
 4d8:	6134366c 	teqvs	r4, ip, ror #12
 4dc:	6675625f 			; <UNDEFINED> instruction: 0x6675625f
 4e0:	69425f00 	stmdbvs	r2, {r8, r9, sl, fp, ip, lr}^
 4e4:	746e6967 	strbtvc	r6, [lr], #-2407	; 0xfffff699
 4e8:	69735f00 	ldmdbvs	r3!, {r8, r9, sl, fp, ip, lr}^
 4ec:	75665f67 	strbvc	r5, [r6, #-3943]!	; 0xfffff099
 4f0:	5f00636e 	svcpl	0x0000636e
 4f4:	6675626e 	ldrbtvs	r6, [r5], -lr, ror #4
 4f8:	6e755f00 	cdpvs	15, 7, cr5, cr5, cr0, {0}
 4fc:	64657375 	strbtvs	r7, [r5], #-885	; 0xfffffc8b
 500:	745f5f00 	ldrbvc	r5, [pc], #-3840	; 508 <hostmode_loop+0x128>
 504:	73695f6d 	cmnvc	r9, #436	; 0x1b4
 508:	00747364 	rsbseq	r7, r4, r4, ror #6
 50c:	636f6c5f 	cmnvs	pc, #24320	; 0x5f00
 510:	69746c61 	ldmdbvs	r4!, {r0, r5, r6, sl, fp, sp, lr}^
 514:	625f656d 	subsvs	r6, pc, #457179136	; 0x1b400000
 518:	5f006675 	svcpl	0x00006675
 51c:	736f6c63 	cmnvc	pc, #25344	; 0x6300
 520:	725f0065 	subsvc	r0, pc, #101	; 0x65
 524:	5f003834 	svcpl	0x00003834
 528:	6f74626d 	svcvs	0x0074626d
 52c:	735f6377 	cmpvc	pc, #-603979775	; 0xdc000001
 530:	65746174 	ldrbvs	r6, [r4, #-372]!	; 0xfffffe8c
 534:	35705f00 	ldrbcc	r5, [r0, #-3840]!	; 0xfffff100
 538:	5f5f0073 	svcpl	0x005f0073
 53c:	6d5f6d74 	ldclvs	13, cr6, [pc, #-464]	; 374 <.divsi3_skip_div0_test+0xa8>
 540:	00796164 	rsbseq	r6, r9, r4, ror #2
 544:	6e5f435f 	mrcvs	3, 2, r4, cr15, cr15, {2}
 548:	72656d75 	rsbvc	r6, r5, #7488	; 0x1d40
 54c:	6c5f6369 	mrrcvs	3, 6, r6, pc, cr9	; <UNPREDICTABLE>
 550:	6c61636f 	stclvs	3, cr6, [r1], #-444	; 0xfffffe44
 554:	75630065 	strbvc	r0, [r3, #-101]!	; 0xffffff9b
 558:	6e657272 	mcrvs	2, 3, r7, cr5, cr2, {3}
 55c:	735f7963 	cmpvc	pc, #1622016	; 0x18c000
 560:	6f626d79 	svcvs	0x00626d79
 564:	7463006c 	strbtvc	r0, [r3], #-108	; 0xffffff94
 568:	5f657079 	svcpl	0x00657079
 56c:	00727470 	rsbseq	r7, r2, r0, ror r4
 570:	5f746e69 	svcpl	0x00746e69
 574:	65735f6e 	ldrbvs	r5, [r3, #-3950]!	; 0xfffff092
 578:	79625f70 	stmdbvc	r2!, {r4, r5, r6, r8, r9, sl, fp, ip, lr}^
 57c:	6170735f 	cmnvs	r0, pc, asr r3
 580:	6c006563 	cfstr32vs	mvfx6, [r0], {99}	; 0x63
 584:	766e6f63 	strbtvc	r6, [lr], -r3, ror #30
 588:	6b6a6300 	blvs	1a99190 <rumboot_platform_stack_area_end+0x1a1a190>
 58c:	6e616c5f 	mcrvs	12, 3, r6, cr1, cr15, {2}
 590:	636c0067 	cmnvs	ip, #103	; 0x67
 594:	6d756e5f 	ldclvs	14, cr6, [r5, #-380]!	; 0xfffffe84
 598:	63697265 	cmnvs	r9, #1342177286	; 0x50000006
 59c:	5f00545f 	svcpl	0x0000545f
 5a0:	69745f43 	ldmdbvs	r4!, {r0, r1, r6, r8, r9, sl, fp, ip, lr}^
 5a4:	6c5f656d 	cfldr64vs	mvdx6, [pc], {109}	; 0x6d
 5a8:	6c61636f 	stclvs	3, cr6, [r1], #-444	; 0xfffffe44
 5ac:	6e690065 	cdpvs	0, 6, cr0, cr9, cr5, {3}
 5b0:	75635f74 	strbvc	r5, [r3, #-3956]!	; 0xfffff08c
 5b4:	735f7272 	cmpvc	pc, #536870919	; 0x20000007
 5b8:	6f626d79 	svcvs	0x00626d79
 5bc:	636c006c 	cmnvs	ip, #108	; 0x6c
 5c0:	6d69745f 	cfstrdvs	mvd7, [r9, #-380]!	; 0xfffffe84
 5c4:	00545f65 	subseq	r5, r4, r5, ror #30
 5c8:	5f746c61 	svcpl	0x00746c61
 5cc:	69676964 	stmdbvs	r7!, {r2, r5, r6, r8, fp, sp, lr}^
 5d0:	5f007374 	svcpl	0x00007374
 5d4:	74635f43 	strbtvc	r5, [r3], #-3907	; 0xfffff0bd
 5d8:	5f657079 	svcpl	0x00657079
 5dc:	61636f6c 	cmnvs	r3, ip, ror #30
 5e0:	6100656c 	tstvs	r0, ip, ror #10
 5e4:	6d705f6d 	ldclvs	15, cr5, [r0, #-436]!	; 0xfffffe4c
 5e8:	61726500 	cmnvs	r2, r0, lsl #10
 5ec:	745f645f 	ldrbvc	r6, [pc], #-1119	; 5f4 <rumboot_platform_dump_config+0x1c>
 5f0:	746d665f 	strbtvc	r6, [sp], #-1631	; 0xfffff9a1
 5f4:	736f6e00 	cmnvc	pc, #0, 28
 5f8:	6c007274 	sfmvs	f7, 4, [r0], {116}	; 0x74
 5fc:	6f6d5f63 	svcvs	0x006d5f63
 600:	6174656e 	cmnvs	r4, lr, ror #10
 604:	545f7972 	ldrbpl	r7, [pc], #-2418	; 60c <rumboot_platform_dump_config+0x34>
 608:	73656d00 	cmnvc	r5, #0, 26
 60c:	65676173 	strbvs	r6, [r7, #-371]!	; 0xfffffe8d
 610:	646f635f 	strbtvs	r6, [pc], #-863	; 618 <rumboot_platform_dump_config+0x40>
 614:	74657365 	strbtvc	r7, [r5], #-869	; 0xfffffc9b
 618:	74626d00 	strbtvc	r6, [r2], #-3328	; 0xfffff300
 61c:	0063776f 	rsbeq	r7, r3, pc, ror #14
 620:	6d5f435f 	ldclvs	3, cr4, [pc, #-380]	; 4ac <hostmode_loop+0xcc>
 624:	61737365 	cmnvs	r3, r5, ror #6
 628:	5f736567 	svcpl	0x00736567
 62c:	61636f6c 	cmnvs	r3, ip, ror #30
 630:	6900656c 	stmdbvs	r0, {r2, r3, r5, r6, r8, sl, sp, lr}
 634:	705f746e 	subsvc	r7, pc, lr, ror #8
 638:	6769735f 			; <UNDEFINED> instruction: 0x6769735f
 63c:	6f705f6e 	svcvs	0x00705f6e
 640:	6d006e73 	stcvs	14, cr6, [r0, #-460]	; 0xfffffe34
 644:	675f6e6f 	ldrbvs	r6, [pc, -pc, ror #28]
 648:	70756f72 	rsbsvc	r6, r5, r2, ror pc
 64c:	00676e69 	rsbeq	r6, r7, r9, ror #28
 650:	6d665f58 	stclvs	15, cr5, [r6, #-352]!	; 0xfffffea0
 654:	6e690074 	mcrvs	0, 3, r0, cr9, cr4, {3}
 658:	5f705f74 	svcpl	0x00705f74
 65c:	705f7363 	subsvc	r7, pc, r3, ror #6
 660:	65636572 	strbvs	r6, [r3, #-1394]!	; 0xfffffa8e
 664:	00736564 	rsbseq	r6, r3, r4, ror #10
 668:	5f6e6f6d 	svcpl	0x006e6f6d
 66c:	69636564 	stmdbvs	r3!, {r2, r5, r6, r8, sl, sp, lr}^
 670:	5f6c616d 	svcpl	0x006c616d
 674:	6e696f70 	mcrvs	15, 3, r6, cr9, cr0, {3}
 678:	5f630074 	svcpl	0x00630074
 67c:	00746d66 	rsbseq	r6, r4, r6, ror #26
 680:	65746164 	ldrbvs	r6, [r4, #-356]!	; 0xfffffe9c
 684:	746d665f 	strbtvc	r6, [sp], #-1631	; 0xfffff9a1
 688:	67656e00 	strbvs	r6, [r5, -r0, lsl #28]!
 68c:	76697461 	strbtvc	r7, [r9], -r1, ror #8
 690:	69735f65 	ldmdbvs	r3!, {r0, r2, r5, r6, r8, r9, sl, fp, ip, lr}^
 694:	6d006e67 	stcvs	14, cr6, [r0, #-412]	; 0xfffffe64
 698:	75635f62 	strbvc	r5, [r3, #-3938]!	; 0xfffff09e
 69c:	616d5f72 	smcvs	54770	; 0xd5f2
 6a0:	63770078 	cmnvs	r7, #120	; 0x78
 6a4:	5f726168 	svcpl	0x00726168
 6a8:	6f700074 	svcvs	0x00700074
 6ac:	69746973 	ldmdbvs	r4!, {r0, r1, r4, r5, r6, r8, fp, sp, lr}^
 6b0:	735f6576 	cmpvc	pc, #494927872	; 0x1d800000
 6b4:	006e6769 	rsbeq	r6, lr, r9, ror #14
 6b8:	70797463 	rsbsvc	r7, r9, r3, ror #8
 6bc:	6f635f65 	svcvs	0x00635f65
 6c0:	65736564 	ldrbvs	r6, [r3, #-1380]!	; 0xfffffa9c
 6c4:	6f6e0074 	svcvs	0x006e0074
 6c8:	72707865 	rsbsvc	r7, r0, #6619136	; 0x650000
 6cc:	665f7800 	ldrbvs	r7, [pc], -r0, lsl #16
 6d0:	7300746d 	movwvc	r7, #1133	; 0x46d
 6d4:	706f6275 	rsbvc	r6, pc, r5, ror r2	; <UNPREDICTABLE>
 6d8:	67726174 			; <UNDEFINED> instruction: 0x67726174
 6dc:	746e6900 	strbtvc	r6, [lr], #-2304	; 0xfffff700
 6e0:	735f705f 	cmpvc	pc, #95	; 0x5f
 6e4:	625f7065 	subsvs	r7, pc, #101	; 0x65
 6e8:	70735f79 	rsbsvc	r5, r3, r9, ror pc
 6ec:	00656361 	rsbeq	r6, r5, r1, ror #6
 6f0:	5f746e69 	svcpl	0x00746e69
 6f4:	73635f6e 	cmnvc	r3, #440	; 0x1b8
 6f8:	6572705f 	ldrbvs	r7, [r2, #-95]!	; 0xffffffa1
 6fc:	65646563 	strbvs	r6, [r4, #-1379]!	; 0xfffffa9d
 700:	646d0073 	strbtvs	r0, [sp], #-115	; 0xffffff8d
 704:	64726f5f 	ldrbtvs	r6, [r2], #-3935	; 0xfffff0a1
 708:	79007265 	stmdbvc	r0, {r0, r2, r5, r6, r9, ip, sp, lr}
 70c:	74737365 	ldrbtvc	r7, [r3], #-869	; 0xfffffc9b
 710:	65790072 	ldrbvs	r0, [r9, #-114]!	; 0xffffff8e
 714:	70786573 	rsbsvc	r6, r8, r3, ror r5
 718:	72650072 	rsbvc	r0, r5, #114	; 0x72
 71c:	5f645f61 	svcpl	0x00645f61
 720:	00746d66 	rsbseq	r6, r4, r6, ror #26
 724:	635f636c 	cmpvs	pc, #108, 6	; 0xb0000001
 728:	65707974 	ldrbvs	r7, [r0, #-2420]!	; 0xfffff68c
 72c:	6500545f 	strvs	r5, [r0, #-1119]	; 0xfffffba1
 730:	745f6172 	ldrbvc	r6, [pc], #-370	; 738 <check_gp_started+0x4>
 734:	746d665f 	strbtvc	r6, [sp], #-1631	; 0xfffff9a1
 738:	74637700 	strbtvc	r7, [r3], #-1792	; 0xfffff900
 73c:	00626d6f 	rsbeq	r6, r2, pc, ror #26
 740:	5f6e6f6d 	svcpl	0x006e6f6d
 744:	756f6874 	strbvc	r6, [pc, #-2164]!	; fffffed8 <rumboot_platform_stack_area_end+0xfff80ed8>
 748:	646e6173 	strbtvs	r6, [lr], #-371	; 0xfffffe8d
 74c:	65735f73 	ldrbvs	r5, [r3, #-3955]!	; 0xfffff08d
 750:	6d610070 	stclvs	0, cr0, [r1, #-448]!	; 0xfffffe40
 754:	665f6d70 			; <UNDEFINED> instruction: 0x665f6d70
 758:	6c00746d 	cfstrsvs	mvf7, [r0], {109}	; 0x6d
 75c:	656d5f63 	strbvs	r5, [sp, #-3939]!	; 0xfffff09d
 760:	67617373 			; <UNDEFINED> instruction: 0x67617373
 764:	545f7365 	ldrbpl	r7, [pc], #-869	; 76c <check_pcie_mbist+0x4>
 768:	65657700 	strbvs	r7, [r5, #-1792]!	; 0xfffff900
 76c:	7961646b 	stmdbvc	r1!, {r0, r1, r3, r5, r6, sl, sp, lr}^
 770:	5f435f00 	svcpl	0x00435f00
 774:	656e6f6d 	strbvs	r6, [lr, #-3949]!	; 0xfffff093
 778:	79726174 	ldmdbvc	r2!, {r2, r4, r5, r6, r8, sp, lr}^
 77c:	636f6c5f 	cmnvs	pc, #24320	; 0x5f00
 780:	00656c61 	rsbeq	r6, r5, r1, ror #24
 784:	6d6f682f 	stclvs	8, cr6, [pc, #-188]!	; 6d0 <main+0x78>
 788:	656e2f65 	strbvs	r2, [lr, #-3941]!	; 0xfffff09b
 78c:	6d6f7263 	sfmvs	f7, 2, [pc, #-396]!	; 608 <rumboot_platform_dump_config+0x30>
 790:	2f746e61 	svccs	0x00746e61
 794:	74666f53 	strbtvc	r6, [r6], #-3923	; 0xfffff0ad
 798:	65726177 	ldrbvs	r6, [r2, #-375]!	; 0xfffffe89
 79c:	6f6f742f 	svcvs	0x006f742f
 7a0:	6168636c 	cmnvs	r8, ip, ror #6
 7a4:	2f736e69 	svccs	0x00736e69
 7a8:	74726f63 	ldrbtvc	r6, [r2], #-3939	; 0xfffff09d
 7ac:	612d7865 			; <UNDEFINED> instruction: 0x612d7865
 7b0:	61622d35 	cmnvs	r2, r5, lsr sp
 7b4:	656d6572 	strbvs	r6, [sp, #-1394]!	; 0xfffffa8e
 7b8:	2f6c6174 	svccs	0x006c6174
 7bc:	6975622e 	ldmdbvs	r5!, {r1, r2, r3, r5, r9, sp, lr}^
 7c0:	612f646c 			; <UNDEFINED> instruction: 0x612f646c
 7c4:	722d6d72 	eorvc	r6, sp, #7296	; 0x1c80
 7c8:	652d6d63 	strvs	r6, [sp, #-3427]!	; 0xfffff29d
 7cc:	68696261 	stmdavs	r9!, {r0, r5, r6, r9, sp, lr}^
 7d0:	75622f66 	strbvc	r2, [r2, #-3942]!	; 0xfffff09a
 7d4:	2f646c69 	svccs	0x00646c69
 7d8:	6c697562 	cfstr64vs	mvdx7, [r9], #-392	; 0xfffffe78
 7dc:	696c2d64 	stmdbvs	ip!, {r2, r5, r6, r8, sl, fp, sp}^
 7e0:	612f6362 			; <UNDEFINED> instruction: 0x612f6362
 7e4:	722d6d72 	eorvc	r6, sp, #7296	; 0x1c80
 7e8:	652d6d63 	strvs	r6, [sp, #-3427]!	; 0xfffff29d
 7ec:	68696261 	stmdavs	r9!, {r0, r5, r6, r9, sp, lr}^
 7f0:	656e2f66 	strbvs	r2, [lr, #-3942]!	; 0xfffff09a
 7f4:	62696c77 	rsbvs	r6, r9, #30464	; 0x7700
 7f8:	62696c2f 	rsbvs	r6, r9, #12032	; 0x2f00
 7fc:	74732f63 	ldrbtvc	r2, [r3], #-3939	; 0xfffff09d
 800:	676e6972 			; <UNDEFINED> instruction: 0x676e6972
 804:	74616300 	strbtvc	r6, [r1], #-768	; 0xfffffd00
 808:	726f6765 	rsbvc	r6, pc, #26476544	; 0x1940000
 80c:	00736569 	rsbseq	r6, r3, r9, ror #10
 810:	5f746e69 	svcpl	0x00746e69
 814:	69735f6e 	ldmdbvs	r3!, {r1, r2, r3, r5, r6, r8, r9, sl, fp, ip, lr}^
 818:	705f6e67 	subsvc	r6, pc, r7, ror #28
 81c:	006e736f 	rsbeq	r7, lr, pc, ror #6
 820:	736d656d 	cmnvc	sp, #457179136	; 0x1b400000
 824:	69007465 	stmdbvs	r0, {r0, r2, r5, r6, sl, ip, sp, lr}
 828:	665f746e 	ldrbvs	r7, [pc], -lr, ror #8
 82c:	5f636172 	svcpl	0x00636172
 830:	69676964 	stmdbvs	r7!, {r2, r5, r6, r8, fp, sp, lr}^
 834:	2f007374 	svccs	0x00007374
 838:	656d6f68 	strbvs	r6, [sp, #-3944]!	; 0xfffff098
 83c:	63656e2f 	cmnvs	r5, #752	; 0x2f0
 840:	616d6f72 	smcvs	55026	; 0xd6f2
 844:	532f746e 			; <UNDEFINED> instruction: 0x532f746e
 848:	7774666f 	ldrbvc	r6, [r4, -pc, ror #12]!
 84c:	2f657261 	svccs	0x00657261
 850:	6c6f6f74 	stclvs	15, cr6, [pc], #-464	; 688 <main+0x30>
 854:	69616863 	stmdbvs	r1!, {r0, r1, r5, r6, fp, sp, lr}^
 858:	632f736e 			; <UNDEFINED> instruction: 0x632f736e
 85c:	6574726f 	ldrbvs	r7, [r4, #-623]!	; 0xfffffd91
 860:	35612d78 	strbcc	r2, [r1, #-3448]!	; 0xfffff288
 864:	7261622d 	rsbvc	r6, r1, #-805306366	; 0xd0000002
 868:	74656d65 	strbtvc	r6, [r5], #-3429	; 0xfffff29b
 86c:	2e2f6c61 	cdpcs	12, 2, cr6, cr15, cr1, {3}
 870:	6c697562 	cfstr64vs	mvdx7, [r9], #-392	; 0xfffffe78
 874:	72732f64 	rsbsvc	r2, r3, #100, 30	; 0x190
 878:	656e2f63 	strbvs	r2, [lr, #-3939]!	; 0xfffff09d
 87c:	62696c77 	rsbvs	r6, r9, #30464	; 0x7700
 880:	352e322d 	strcc	r3, [lr, #-557]!	; 0xfffffdd3
 884:	322e302e 	eorcc	r3, lr, #46	; 0x2e
 888:	30373130 	eorscc	r3, r7, r0, lsr r1
 88c:	2f393135 	svccs	0x00393135
 890:	6c77656e 	cfldr64vs	mvdx6, [r7], #-440	; 0xfffffe48
 894:	6c2f6269 	sfmvs	f6, 4, [pc], #-420	; 6f8 <main+0xa0>
 898:	2f636269 	svccs	0x00636269
 89c:	69727473 	ldmdbvs	r2!, {r0, r1, r4, r5, r6, sl, ip, sp, lr}^
 8a0:	6d2f676e 	stcvs	7, cr6, [pc, #-440]!	; 6f0 <main+0x98>
 8a4:	65736d65 	ldrbvs	r6, [r3, #-3429]!	; 0xfffff29b
 8a8:	00632e74 	rsbeq	r2, r3, r4, ror lr
 8ac:	5f746c61 	svcpl	0x00746c61
 8b0:	746e6f6d 	strbtvc	r6, [lr], #-3949	; 0xfffff093
 8b4:	Address 0x00000000000008b4 is out of bounds.

